

Microchip MPLAB XC8 Assembler V2.10 build 88905656 
                                                                                               Mon Apr 13 06:12:01 2020

Microchip MPLAB XC8 C Compiler v2.10 (Free license) build 20190730164152 Og1 
     1                           	processor	18F43K22
     2                           	fnconf	rparam,??,?,0
     3                           	opt	pw 120
     4                           	opt	flic
     5                           	psect	nvCOMRAM,global,class=COMRAM,space=1,delta=1,noexec
     6                           	psect	smallconst,global,reloc=2,class=SMALLCONST,delta=1,noexec
     7                           	psect	cinit,global,reloc=2,class=CODE,delta=1
     8                           	psect	bssCOMRAM,global,class=COMRAM,space=1,delta=1,noexec
     9                           	psect	cstackCOMRAM,global,class=COMRAM,space=1,delta=1,noexec
    10                           	psect	text0,global,reloc=2,class=CODE,delta=1
    11                           	psect	text1,global,reloc=2,class=CODE,delta=1,group=1
    12                           	psect	text2,global,reloc=2,class=CODE,delta=1
    13                           	psect	text3,global,reloc=2,class=CODE,delta=1
    14                           	psect	text4,global,reloc=2,class=CODE,delta=1
    15                           	psect	text5,global,reloc=2,class=CODE,delta=1
    16                           	psect	text6,global,reloc=2,class=CODE,delta=1
    17                           	psect	text7,global,reloc=2,class=CODE,delta=1
    18                           	psect	text8,global,reloc=2,class=CODE,delta=1
    19                           	psect	text9,global,reloc=2,class=CODE,delta=1
    20                           	psect	text10,global,reloc=2,class=CODE,delta=1
    21                           	psect	text11,global,reloc=2,class=CODE,delta=1
    22                           	psect	text12,global,reloc=2,class=CODE,delta=1
    23                           	psect	text13,global,reloc=2,class=CODE,delta=1
    24                           	psect	text14,global,reloc=2,class=CODE,delta=1
    25                           	psect	text15,global,reloc=2,class=CODE,delta=1
    26                           	psect	text16,global,reloc=2,class=CODE,delta=1
    27                           	psect	text17,global,reloc=2,class=CODE,delta=1
    28                           	psect	text18,global,reloc=2,class=CODE,delta=1
    29                           	psect	text19,global,reloc=2,class=CODE,delta=1
    30                           	psect	text20,global,reloc=2,class=CODE,delta=1
    31                           	psect	text21,global,reloc=2,class=CODE,delta=1
    32                           	psect	text22,global,reloc=2,class=CODE,delta=1,group=1
    33                           	psect	text23,global,reloc=2,class=CODE,delta=1,group=1
    34                           	psect	text24,global,reloc=2,class=CODE,delta=1,group=1
    35                           	psect	text25,global,reloc=2,class=CODE,delta=1
    36                           	psect	text26,global,reloc=2,class=CODE,delta=1
    37                           	psect	text27,global,reloc=2,class=CODE,delta=1
    38                           	psect	text28,global,reloc=2,class=CODE,delta=1
    39                           	psect	text29,global,reloc=2,class=CODE,delta=1
    40                           	psect	text30,global,reloc=2,class=CODE,delta=1
    41                           	psect	text31,global,reloc=2,class=CODE,delta=1
    42                           	psect	text32,global,reloc=2,class=CODE,delta=1,group=2
    43                           	psect	text33,global,reloc=2,class=CODE,delta=1
    44                           	psect	text34,global,reloc=2,class=CODE,delta=1
    45                           	psect	text35,global,reloc=2,class=CODE,delta=1
    46                           	psect	text36,global,reloc=2,class=CODE,delta=1
    47                           	psect	text37,global,reloc=2,class=CODE,delta=1
    48                           	psect	text38,global,reloc=2,class=CODE,delta=1
    49                           	psect	text39,global,reloc=2,class=CODE,delta=1
    50                           	psect	text40,global,reloc=2,class=CODE,delta=1
    51                           	psect	text41,global,reloc=2,class=CODE,delta=1
    52                           	psect	text42,global,reloc=2,class=CODE,delta=1
    53                           	psect	text43,global,reloc=2,class=CODE,delta=1
    54                           	psect	intsave_regs,global,class=BIGRAM,space=1,delta=1,noexec
    55                           	psect	rparam,global,class=COMRAM,space=1,delta=1,noexec
    56  0000                     
    57                           ; Version 2.10
    58                           ; Generated 31/07/2019 GMT
    59                           ; 
    60                           ; Copyright © 2019, Microchip Technology Inc. and its subsidiaries ("Microchip")
    61                           ; All rights reserved.
    62                           ; 
    63                           ; This software is developed by Microchip Technology Inc. and its subsidiaries ("Microch
      +                          ip").
    64                           ; 
    65                           ; Redistribution and use in source and binary forms, with or without modification, are
    66                           ; permitted provided that the following conditions are met:
    67                           ; 
    68                           ;     1. Redistributions of source code must retain the above copyright notice, this lis
      +                          t of
    69                           ;        conditions and the following disclaimer.
    70                           ; 
    71                           ;     2. Redistributions in binary form must reproduce the above copyright notice, this 
      +                          list
    72                           ;        of conditions and the following disclaimer in the documentation and/or other
    73                           ;        materials provided with the distribution.
    74                           ; 
    75                           ;     3. Microchip's name may not be used to endorse or promote products derived from th
      +                          is
    76                           ;        software without specific prior written permission.
    77                           ; 
    78                           ; THIS SOFTWARE IS PROVIDED BY MICROCHIP "AS IS" AND ANY EXPRESS OR IMPLIED WARRANTIES,
    79                           ; INCLUDING, BUT NOT LIMITED TO, THE IMPLIED WARRANTIES OF MERCHANTABILITY AND FITNESS F
      +                          OR
    80                           ; PURPOSE ARE DISCLAIMED.  IN NO EVENT SHALL MICROCHIP BE LIABLE FOR ANY DIRECT, INDIREC
      +                          T,
    81                           ; INCIDENTAL, SPECIAL, EXEMPLARY, OR CONSEQUENTIAL DAMAGES (INCLUDING BUT NOT LIMITED TO
    82                           ; PROCUREMENT OF SUBSTITUTE GOODS OR SERVICES; LOSS OF USE, DATA OR PROFITS; OR BUSINESS
    83                           ; INTERRUPTION) HOWSOEVER CAUSED AND ON ANY THEORY OF LIABILITY, WHETHER IN CONTRACT, ST
      +                          RICT
    84                           ; LIABILITY, OR TORT (INCLUDING NEGLIGENCE OR OTHERWISE) ARISING IN ANY WAY OUT OF THE U
      +                          SE OF
    85                           ; THIS SOFTWARE, EVEN IF ADVISED OF THE POSSIBILITY OF SUCH DAMAGE.
    86                           ; 
    87                           ; 
    88                           ; Code-generator required, PIC18F43K22 Definitions
    89                           ; 
    90                           ; SFR Addresses
    91  0000                     
    92 ;; Function _EUSART1_DefaultFramingErrorHandler is unused but had its address taken
    93  0000                     
    94 ;; Function _EUSART1_DefaultOverrunErrorHandler is unused but had its address taken
    95  0000                     
    96 ;; Function _EUSART1_DefaultErrorHandler is unused but had its address taken
    97  0000                     
    98 ;; Function _EUSART2_DefaultFramingErrorHandler is unused but had its address taken
    99  0000                     
   100 ;; Function _EUSART2_DefaultOverrunErrorHandler is unused but had its address taken
   101  0000                     
   102 ;; Function _EUSART2_DefaultErrorHandler is unused but had its address taken
   103  0000                     
   104                           	psect	nvCOMRAM
   105  000035                     __pnvCOMRAM:
   106                           	opt callstack 0
   107  000035                     _EUSART2_ErrorHandler:
   108                           	opt callstack 0
   109  000035                     	ds	2
   110  000037                     _EUSART2_OverrunErrorHandler:
   111                           	opt callstack 0
   112  000037                     	ds	2
   113  000039                     _EUSART2_FramingErrorHandler:
   114                           	opt callstack 0
   115  000039                     	ds	2
   116  00003B                     _timer1ReloadVal:
   117                           	opt callstack 0
   118  00003B                     	ds	2
   119  00003D                     _EUSART1_ErrorHandler:
   120                           	opt callstack 0
   121  00003D                     	ds	2
   122  00003F                     _EUSART1_OverrunErrorHandler:
   123                           	opt callstack 0
   124  00003F                     	ds	2
   125  000041                     _EUSART1_FramingErrorHandler:
   126                           	opt callstack 0
   127  000041                     	ds	2
   128  0000                     _ANSELA	set	3896
   129  0000                     _ANSELE	set	3900
   130  0000                     _ANSELB	set	3897
   131  0000                     _ANSELC	set	3898
   132  0000                     _ANSELD	set	3899
   133  0000                     _TMR1	set	4046
   134  0000                     _LATCbits	set	3979
   135  0000                     _PORTBbits	set	3969
   136  0000                     _LATBbits	set	3978
   137  0000                     _PORTDbits	set	3971
   138  0000                     _LATDbits	set	3980
   139  0000                     _LATEbits	set	3981
   140  0000                     _LATAbits	set	3977
   141  0000                     _TXREG2	set	3955
   142  0000                     _RCREG2	set	3956
   143  0000                     _RCSTA2bits	set	3953
   144  0000                     _TXSTA2bits	set	3954
   145  0000                     _PIR3bits	set	4004
   146  0000                     _SPBRGH2	set	3958
   147  0000                     _SPBRG2	set	3957
   148  0000                     _TXSTA2	set	3954
   149  0000                     _RCSTA2	set	3953
   150  0000                     _BAUDCON2	set	3952
   151  0000                     _T1GCONbits	set	4044
   152  0000                     _T1CONbits	set	4045
   153  0000                     _T1CON	set	4045
   154  0000                     _TMR1L	set	4046
   155  0000                     _TMR1H	set	4047
   156  0000                     _T1GCON	set	4044
   157  0000                     _INTCONbits	set	4082
   158  0000                     _INTCON2bits	set	4081
   159  0000                     _WPUB	set	3937
   160  0000                     _TRISD	set	3989
   161  0000                     _TRISC	set	3988
   162  0000                     _TRISB	set	3987
   163  0000                     _TRISA	set	3986
   164  0000                     _TRISE	set	3990
   165  0000                     _LATC	set	3979
   166  0000                     _LATB	set	3978
   167  0000                     _LATA	set	3977
   168  0000                     _LATD	set	3980
   169  0000                     _LATE	set	3981
   170  0000                     _OSCTUNE	set	3995
   171  0000                     _OSCCON2	set	4050
   172  0000                     _OSCCON	set	4051
   173  0000                     _TXREG1	set	4013
   174  0000                     _RCREG1	set	4014
   175  0000                     _RCSTA1bits	set	4011
   176  0000                     _TXSTA1bits	set	4012
   177  0000                     _PIR1bits	set	3998
   178  0000                     _SPBRGH1	set	4016
   179  0000                     _SPBRG1	set	4015
   180  0000                     _TXSTA1	set	4012
   181  0000                     _RCSTA1	set	4011
   182  0000                     _BAUDCON1	set	4024
   183                           
   184                           	psect	smallconst
   185  000200                     __psmallconst:
   186                           	opt callstack 0
   187  000200  00                 	db	0
   188  000201                     STR_6:
   189  000201  47                 	db	71	;'G'
   190  000202  72                 	db	114	;'r'
   191  000203  6F                 	db	111	;'o'
   192  000204  75                 	db	117	;'u'
   193  000205  70                 	db	112	;'p'
   194  000206  20                 	db	32
   195  000207  37                 	db	55	;'7'
   196  000208  20                 	db	32
   197  000209  50                 	db	80	;'P'
   198  00020A  72                 	db	114	;'r'
   199  00020B  6F                 	db	111	;'o'
   200  00020C  6A                 	db	106	;'j'
   201  00020D  65                 	db	101	;'e'
   202  00020E  63                 	db	99	;'c'
   203  00020F  74                 	db	116	;'t'
   204  000210  00                 	db	0
   205  000211                     STR_7:
   206  000211  31                 	db	49	;'1'
   207  000212  36                 	db	54	;'6'
   208  000213  20                 	db	32
   209  000214  41                 	db	65	;'A'
   210  000215  70                 	db	112	;'p'
   211  000216  72                 	db	114	;'r'
   212  000217  69                 	db	105	;'i'
   213  000218  6C                 	db	108	;'l'
   214  000219  20                 	db	32
   215  00021A  32                 	db	50	;'2'
   216  00021B  30                 	db	48	;'0'
   217  00021C  32                 	db	50	;'2'
   218  00021D  30                 	db	48	;'0'
   219  00021E  00                 	db	0
   220  00021F                     STR_1:
   221  00021F  46                 	db	70	;'F'
   222  000220  4F                 	db	79	;'O'
   223  000221  52                 	db	82	;'R'
   224  000222  57                 	db	87	;'W'
   225  000223  41                 	db	65	;'A'
   226  000224  52                 	db	82	;'R'
   227  000225  44                 	db	68	;'D'
   228  000226  00                 	db	0
   229  000227                     STR_4:
   230  000227  52                 	db	82	;'R'
   231  000228  49                 	db	73	;'I'
   232  000229  47                 	db	71	;'G'
   233  00022A  48                 	db	72	;'H'
   234  00022B  54                 	db	84	;'T'
   235  00022C  00                 	db	0
   236  00022D                     STR_2:
   237  00022D  42                 	db	66	;'B'
   238  00022E  41                 	db	65	;'A'
   239  00022F  43                 	db	67	;'C'
   240  000230  4B                 	db	75	;'K'
   241  000231  00                 	db	0
   242  000232                     STR_5:
   243  000232  53                 	db	83	;'S'
   244  000233  54                 	db	84	;'T'
   245  000234  4F                 	db	79	;'O'
   246  000235  50                 	db	80	;'P'
   247  000236  00                 	db	0
   248  000237                     STR_3:
   249  000237  4C                 	db	76	;'L'
   250  000238  45                 	db	69	;'E'
   251  000239  46                 	db	70	;'F'
   252  00023A  54                 	db	84	;'T'
   253  00023B  00                 	db	0
   254  0000                     
   255                           ; #config settings
   256  00023C  00                 	db	0	; dummy byte at the end
   257  0000                     
   258                           	psect	cinit
   259  0015D2                     __pcinit:
   260                           	opt callstack 0
   261  0015D2                     start_initialization:
   262                           	opt callstack 0
   263  0015D2                     __initialization:
   264                           	opt callstack 0
   265                           
   266                           ; Clear objects allocated to COMRAM (10 bytes)
   267  0015D2  EE00  F043         	lfsr	0,__pbssCOMRAM
   268  0015D6  0E0A               	movlw	10
   269  0015D8                     clear_0:
   270  0015D8  6AEE               	clrf	postinc0,c
   271  0015DA  06E8               	decf	wreg,f,c
   272  0015DC  E1FD               	bnz	clear_0
   273  0015DE                     end_of_initialization:
   274                           	opt callstack 0
   275  0015DE                     __end_of__initialization:
   276                           	opt callstack 0
   277  0015DE  0E00               	movlw	low (__Lmediumconst shr (0+16))
   278  0015E0  6EF8               	movwf	tblptru,c
   279  0015E2  0100               	movlb	0
   280  0015E4  EF4C  F005         	goto	_main	;jump to C main() function
   281                           
   282                           	psect	bssCOMRAM
   283  000043                     __pbssCOMRAM:
   284                           	opt callstack 0
   285  000043                     _Distance:
   286                           	opt callstack 0
   287  000043                     	ds	4
   288  000047                     _Time:
   289                           	opt callstack 0
   290  000047                     	ds	4
   291  00004B                     _eusart2RxLastError:
   292                           	opt callstack 0
   293  00004B                     	ds	1
   294  00004C                     _eusart1RxLastError:
   295                           	opt callstack 0
   296  00004C                     	ds	1
   297                           
   298                           	psect	cstackCOMRAM
   299  000001                     __pcstackCOMRAM:
   300                           	opt callstack 0
   301  000001                     ?_strcmp:
   302                           	opt callstack 0
   303  000001                     ?_TMR1_ReadTimer:
   304                           	opt callstack 0
   305  000001                     ?___fladd:
   306                           	opt callstack 0
   307  000001                     ?___fldiv:
   308                           	opt callstack 0
   309  000001                     Lcd_SetBit@data_bit:
   310                           	opt callstack 0
   311  000001                     EUSART1_SetFramingErrorHandler@interruptHandler:
   312                           	opt callstack 0
   313  000001                     EUSART1_SetOverrunErrorHandler@interruptHandler:
   314                           	opt callstack 0
   315  000001                     EUSART1_SetErrorHandler@interruptHandler:
   316                           	opt callstack 0
   317  000001                     TMR1_WriteTimer@timerVal:
   318                           	opt callstack 0
   319  000001                     EUSART2_SetFramingErrorHandler@interruptHandler:
   320                           	opt callstack 0
   321  000001                     EUSART2_SetOverrunErrorHandler@interruptHandler:
   322                           	opt callstack 0
   323  000001                     EUSART2_SetErrorHandler@interruptHandler:
   324                           	opt callstack 0
   325  000001                     strcmp@l:
   326                           	opt callstack 0
   327  000001                     ___fladd@b:
   328                           	opt callstack 0
   329  000001                     ___fldiv@b:
   330                           	opt callstack 0
   331                           
   332                           ; 4 bytes @ 0x0
   333  000001                     	ds	1
   334  000002                     ??_Lcd_Cmd:
   335  000002                     Lcd_Print_Char@Lower_Nibble:
   336                           	opt callstack 0
   337                           
   338                           ; 1 bytes @ 0x1
   339  000002                     	ds	1
   340  000003                     ??_TMR1_ReadTimer:
   341  000003                     Lcd_Cmd@a:
   342                           	opt callstack 0
   343  000003                     Lcd_Print_Char@Upper_Nibble:
   344                           	opt callstack 0
   345  000003                     strcmp@r:
   346                           	opt callstack 0
   347                           
   348                           ; 2 bytes @ 0x2
   349  000003                     	ds	1
   350  000004                     ??_Lcd_Start:
   351  000004                     Lcd_Set_Cursor@b:
   352                           	opt callstack 0
   353  000004                     Lcd_Print_Char@i:
   354                           	opt callstack 0
   355                           
   356                           ; 2 bytes @ 0x3
   357  000004                     	ds	1
   358  000005                     ??_strcmp:
   359  000005                     Lcd_Set_Cursor@a:
   360                           	opt callstack 0
   361  000005                     TMR1_ReadTimer@readVal:
   362                           	opt callstack 0
   363  000005                     ___fladd@a:
   364                           	opt callstack 0
   365  000005                     ___fldiv@a:
   366                           	opt callstack 0
   367                           
   368                           ; 4 bytes @ 0x4
   369  000005                     	ds	1
   370  000006                     Lcd_Set_Cursor@z:
   371                           	opt callstack 0
   372  000006                     Chair_Position@Command:
   373                           	opt callstack 0
   374  000006                     Lcd_Print_Char@i_1375:
   375                           	opt callstack 0
   376                           
   377                           ; 2 bytes @ 0x5
   378  000006                     	ds	1
   379  000007                     TMR1_ReadTimer@readValHigh:
   380                           	opt callstack 0
   381  000007                     Lcd_Set_Cursor@y:
   382                           	opt callstack 0
   383                           
   384                           ; 1 bytes @ 0x6
   385  000007                     	ds	1
   386  000008                     TMR1_ReadTimer@readValLow:
   387                           	opt callstack 0
   388  000008                     Lcd_Set_Cursor@temp:
   389                           	opt callstack 0
   390  000008                     Lcd_Print_Char@data:
   391                           	opt callstack 0
   392                           
   393                           ; 1 bytes @ 0x7
   394  000008                     	ds	1
   395  000009                     ??___fladd:
   396  000009                     ??___fldiv:
   397  000009                     ?___xxtofl:
   398                           	opt callstack 0
   399  000009                     Lcd_Print_String@a:
   400                           	opt callstack 0
   401  000009                     ___xxtofl@val:
   402                           	opt callstack 0
   403                           
   404                           ; 4 bytes @ 0x8
   405  000009                     	ds	2
   406  00000B                     ??_Lcd_Print_String:
   407                           
   408                           ; 1 bytes @ 0xA
   409  00000B                     	ds	2
   410  00000D                     ??___xxtofl:
   411  00000D                     ___fladd@signs:
   412                           	opt callstack 0
   413  00000D                     Lcd_Print_String@i:
   414                           	opt callstack 0
   415  00000D                     ___fldiv@rem:
   416                           	opt callstack 0
   417                           
   418                           ; 4 bytes @ 0xC
   419  00000D                     	ds	1
   420  00000E                     ___fladd@aexp:
   421                           	opt callstack 0
   422                           
   423                           ; 1 bytes @ 0xD
   424  00000E                     	ds	1
   425  00000F                     ___fladd@bexp:
   426                           	opt callstack 0
   427                           
   428                           ; 1 bytes @ 0xE
   429  00000F                     	ds	1
   430  000010                     ___fladd@grs:
   431                           	opt callstack 0
   432                           
   433                           ; 1 bytes @ 0xF
   434  000010                     	ds	1
   435  000011                     ___fldiv@sign:
   436                           	opt callstack 0
   437  000011                     ___xxtofl@sign:
   438                           	opt callstack 0
   439                           
   440                           ; 1 bytes @ 0x10
   441  000011                     	ds	1
   442  000012                     ___xxtofl@exp:
   443                           	opt callstack 0
   444  000012                     ___fldiv@new_exp:
   445                           	opt callstack 0
   446                           
   447                           ; 2 bytes @ 0x11
   448  000012                     	ds	1
   449  000013                     ___xxtofl@arg:
   450                           	opt callstack 0
   451                           
   452                           ; 4 bytes @ 0x12
   453  000013                     	ds	1
   454  000014                     ___fldiv@grs:
   455                           	opt callstack 0
   456                           
   457                           ; 4 bytes @ 0x13
   458  000014                     	ds	4
   459  000018                     ___fldiv@bexp:
   460                           	opt callstack 0
   461                           
   462                           ; 1 bytes @ 0x17
   463  000018                     	ds	1
   464  000019                     ___fldiv@aexp:
   465                           	opt callstack 0
   466                           
   467                           ; 1 bytes @ 0x18
   468  000019                     	ds	1
   469  00001A                     ?_Get_Distance_Front:
   470                           	opt callstack 0
   471  00001A                     ?_Get_Distance_Rear:
   472                           	opt callstack 0
   473                           
   474                           ; 4 bytes @ 0x19
   475  00001A                     	ds	4
   476  00001E                     ___flge@ff1:
   477                           	opt callstack 0
   478                           
   479                           ; 4 bytes @ 0x1D
   480  00001E                     	ds	4
   481  000022                     ___flge@ff2:
   482                           	opt callstack 0
   483                           
   484                           ; 4 bytes @ 0x21
   485  000022                     	ds	4
   486  000026                     ??___flge:
   487                           
   488                           ; 1 bytes @ 0x25
   489  000026                     	ds	4
   490  00002A                     ??_main:
   491                           
   492                           ; 1 bytes @ 0x29
   493  00002A                     	ds	10
   494  000034                     main@Direction:
   495                           	opt callstack 0
   496                           
   497                           ; 1 bytes @ 0x33
   498  000034                     	ds	1
   499                           
   500 ;;
   501 ;;Main: autosize = 0, tempsize = 2, incstack = 0, save=0
   502 ;;
   503 ;; *************** function _main *****************
   504 ;; Defined at:
   505 ;;		line 12 in file "main.c"
   506 ;; Parameters:    Size  Location     Type
   507 ;;		None
   508 ;; Auto vars:     Size  Location     Type
   509 ;;  rec           100    0        unsigned char [100]
   510 ;;  Time            4    0        float 
   511 ;;  Distance        4    0        float 
   512 ;;  Direction       1   51[COMRAM] unsigned char 
   513 ;; Return value:  Size  Location     Type
   514 ;;                  1    wreg      void 
   515 ;; Registers used:
   516 ;;		wreg, status,2, status,0, tblptrl, tblptrh, tblptru, cstack
   517 ;; Tracked objects:
   518 ;;		On entry : 0/0
   519 ;;		On exit  : 0/0
   520 ;;		Unchanged: 0/0
   521 ;; Data sizes:     COMRAM   BANK0   BANK1
   522 ;;      Params:         0       0       0
   523 ;;      Locals:         9       0       0
   524 ;;      Temps:          2       0       0
   525 ;;      Totals:        11       0       0
   526 ;;Total ram usage:       11 bytes
   527 ;; Hardware stack levels required when called:    3
   528 ;; This function calls:
   529 ;;		_Chair_Position
   530 ;;		_EUSART1_Read
   531 ;;		_EUSART1_is_rx_ready
   532 ;;		_Get_Distance_Front
   533 ;;		_Get_Distance_Rear
   534 ;;		_Lcd_Print_String
   535 ;;		_Lcd_Set_Cursor
   536 ;;		_Lcd_Start
   537 ;;		_SYSTEM_Initialize
   538 ;;		___flge
   539 ;; This function is called by:
   540 ;;		Startup code after reset
   541 ;; This function uses a non-reentrant model
   542 ;;
   543                           
   544                           	psect	text0
   545  000A98                     __ptext0:
   546                           	opt callstack 0
   547  000A98                     _main:
   548                           	opt callstack 28
   549  000A98                     
   550                           ;main.c: 15:     SYSTEM_Initialize();
   551  000A98  ECF4  F00A         	call	_SYSTEM_Initialize	;wreg free
   552  000A9C                     
   553                           ;main.c: 18:     Lcd_Start();
   554  000A9C  ECA8  F009         	call	_Lcd_Start	;wreg free
   555  000AA0                     
   556                           ;main.c: 19:     Lcd_Set_Cursor(1,1);
   557  000AA0  0E01               	movlw	1
   558  000AA2  6E04               	movwf	Lcd_Set_Cursor@b^0,c
   559  000AA4  0E01               	movlw	1
   560  000AA6  EC75  F009         	call	_Lcd_Set_Cursor
   561  000AAA                     
   562                           ;main.c: 20:     Lcd_Print_String("Group 7 Project");
   563  000AAA  0E01               	movlw	low STR_6
   564  000AAC  6E09               	movwf	Lcd_Print_String@a^0,c
   565  000AAE  0E02               	movlw	high STR_6
   566  000AB0  6E0A               	movwf	(Lcd_Print_String@a+1)^0,c
   567  000AB2  EC07  F00A         	call	_Lcd_Print_String	;wreg free
   568  000AB6                     
   569                           ;main.c: 21:     Lcd_Set_Cursor(2,2);
   570  000AB6  0E02               	movlw	2
   571  000AB8  6E04               	movwf	Lcd_Set_Cursor@b^0,c
   572  000ABA  0E02               	movlw	2
   573  000ABC  EC75  F009         	call	_Lcd_Set_Cursor
   574  000AC0                     
   575                           ;main.c: 22:     Lcd_Print_String("16 April 2020");
   576  000AC0  0E11               	movlw	low STR_7
   577  000AC2  6E09               	movwf	Lcd_Print_String@a^0,c
   578  000AC4  0E02               	movlw	high STR_7
   579  000AC6  6E0A               	movwf	(Lcd_Print_String@a+1)^0,c
   580  000AC8  EC07  F00A         	call	_Lcd_Print_String	;wreg free
   581  000ACC                     l2714:
   582                           
   583                           ;main.c: 56:     {;main.c: 66:         if(EUSART1_is_rx_ready()){
   584  000ACC  ECFF  F00A         	call	_EUSART1_is_rx_ready	;wreg free
   585  000AD0  0900               	iorlw	0
   586  000AD2  B4D8               	btfsc	status,2,c
   587  000AD4  EF6E  F005         	goto	u2121
   588  000AD8  EF70  F005         	goto	u2120
   589  000ADC                     u2121:
   590  000ADC  EFD6  F005         	goto	l2748
   591  000AE0                     u2120:
   592  000AE0                     
   593                           ;main.c: 67:             Direction= EUSART1_Read();
   594  000AE0  ECA7  F00A         	call	_EUSART1_Read	;wreg free
   595  000AE4  6E34               	movwf	main@Direction^0,c
   596  000AE6                     
   597                           ;main.c: 70:         if(Direction=='F')
   598  000AE6  0E46               	movlw	70
   599  000AE8  1834               	xorwf	main@Direction^0,w,c
   600  000AEA  A4D8               	btfss	status,2,c
   601  000AEC  EF7A  F005         	goto	u2131
   602  000AF0  EF7C  F005         	goto	u2130
   603  000AF4                     u2131:
   604  000AF4  EF90  F005         	goto	l2724
   605  000AF8                     u2130:
   606  000AF8                     
   607                           ;main.c: 71:             {;main.c: 72:                  Chair_Position("FORWARD");
   608  000AF8  0E1F               	movlw	low STR_1
   609  000AFA  6E06               	movwf	Chair_Position@Command^0,c
   610  000AFC  0E02               	movlw	high STR_1
   611  000AFE  6E07               	movwf	(Chair_Position@Command+1)^0,c
   612  000B00  EC89  F008         	call	_Chair_Position	;wreg free
   613  000B04                     l2722:
   614                           
   615                           ;main.c: 73:                   _delay((unsigned long)((100)*(8000000/4000.0)));
   616  000B04  0E02               	movlw	2
   617  000B06  6E2B               	movwf	(??_main+1)^0,c
   618  000B08  0E04               	movlw	4
   619  000B0A  6E2A               	movwf	??_main^0,c
   620  000B0C  0EBA               	movlw	186
   621  000B0E                     u2207:
   622  000B0E  2EE8               	decfsz	wreg,f,c
   623  000B10  D7FE               	bra	u2207
   624  000B12  2E2A               	decfsz	??_main^0,f,c
   625  000B14  D7FC               	bra	u2207
   626  000B16  2E2B               	decfsz	(??_main+1)^0,f,c
   627  000B18  D7FA               	bra	u2207
   628  000B1A  D000               	nop2	
   629                           
   630                           ;main.c: 76:             }
   631  000B1C  EFE9  F005         	goto	l2756
   632  000B20                     l2724:
   633  000B20  0E42               	movlw	66
   634  000B22  1834               	xorwf	main@Direction^0,w,c
   635  000B24  A4D8               	btfss	status,2,c
   636  000B26  EF97  F005         	goto	u2141
   637  000B2A  EF99  F005         	goto	u2140
   638  000B2E                     u2141:
   639  000B2E  EFA1  F005         	goto	l2730
   640  000B32                     u2140:
   641  000B32                     
   642                           ;main.c: 79:             {;main.c: 80:                  Chair_Position("BACK");
   643  000B32  0E2D               	movlw	low STR_2
   644  000B34  6E06               	movwf	Chair_Position@Command^0,c
   645  000B36  0E02               	movlw	high STR_2
   646  000B38  6E07               	movwf	(Chair_Position@Command+1)^0,c
   647  000B3A  EC89  F008         	call	_Chair_Position	;wreg free
   648  000B3E  EF82  F005         	goto	l2722
   649  000B42                     l2730:
   650  000B42  0E4C               	movlw	76
   651  000B44  1834               	xorwf	main@Direction^0,w,c
   652  000B46  A4D8               	btfss	status,2,c
   653  000B48  EFA8  F005         	goto	u2151
   654  000B4C  EFAA  F005         	goto	u2150
   655  000B50                     u2151:
   656  000B50  EFB2  F005         	goto	l2736
   657  000B54                     u2150:
   658  000B54                     
   659                           ;main.c: 88:                  Chair_Position("LEFT");
   660  000B54  0E37               	movlw	low STR_3
   661  000B56  6E06               	movwf	Chair_Position@Command^0,c
   662  000B58  0E02               	movlw	high STR_3
   663  000B5A  6E07               	movwf	(Chair_Position@Command+1)^0,c
   664  000B5C  EC89  F008         	call	_Chair_Position	;wreg free
   665  000B60  EF82  F005         	goto	l2722
   666  000B64                     l2736:
   667  000B64  0E52               	movlw	82
   668  000B66  1834               	xorwf	main@Direction^0,w,c
   669  000B68  A4D8               	btfss	status,2,c
   670  000B6A  EFB9  F005         	goto	u2161
   671  000B6E  EFBB  F005         	goto	u2160
   672  000B72                     u2161:
   673  000B72  EFC3  F005         	goto	l2742
   674  000B76                     u2160:
   675  000B76                     
   676                           ;main.c: 95:                  Chair_Position("RIGHT");
   677  000B76  0E27               	movlw	low STR_4
   678  000B78  6E06               	movwf	Chair_Position@Command^0,c
   679  000B7A  0E02               	movlw	high STR_4
   680  000B7C  6E07               	movwf	(Chair_Position@Command+1)^0,c
   681  000B7E  EC89  F008         	call	_Chair_Position	;wreg free
   682  000B82  EF82  F005         	goto	l2722
   683  000B86                     l2742:
   684  000B86  0E53               	movlw	83
   685  000B88  1834               	xorwf	main@Direction^0,w,c
   686  000B8A  A4D8               	btfss	status,2,c
   687  000B8C  EFCA  F005         	goto	u2171
   688  000B90  EFCC  F005         	goto	u2170
   689  000B94                     u2171:
   690  000B94  EFD4  F005         	goto	l527
   691  000B98                     u2170:
   692  000B98                     
   693                           ;main.c: 102:                  Chair_Position("STOP");
   694  000B98  0E32               	movlw	low STR_5
   695  000B9A  6E06               	movwf	Chair_Position@Command^0,c
   696  000B9C  0E02               	movlw	high STR_5
   697  000B9E  6E07               	movwf	(Chair_Position@Command+1)^0,c
   698  000BA0  EC89  F008         	call	_Chair_Position	;wreg free
   699  000BA4  EF82  F005         	goto	l2722
   700  000BA8                     l527:
   701  000BA8  EFE9  F005         	goto	l2756
   702  000BAC                     l2748:
   703                           
   704                           ;main.c: 109:                  Chair_Position("STOP");
   705  000BAC  0E32               	movlw	low STR_5
   706  000BAE  6E06               	movwf	Chair_Position@Command^0,c
   707  000BB0  0E02               	movlw	high STR_5
   708  000BB2  6E07               	movwf	(Chair_Position@Command+1)^0,c
   709  000BB4  EC89  F008         	call	_Chair_Position	;wreg free
   710  000BB8  EFE9  F005         	goto	l2756
   711  000BBC                     l2750:
   712                           
   713                           ;main.c: 116:          {;main.c: 117:           Chair_Position("STOP");
   714  000BBC  0E32               	movlw	low STR_5
   715  000BBE  6E06               	movwf	Chair_Position@Command^0,c
   716  000BC0  0E02               	movlw	high STR_5
   717  000BC2  6E07               	movwf	(Chair_Position@Command+1)^0,c
   718  000BC4  EC89  F008         	call	_Chair_Position	;wreg free
   719  000BC8  848B               	bsf	139,2,c	;volatile
   720  000BCA                     
   721                           ;main.c: 119:            _delay((unsigned long)((200)*(8000000/4000000.0)));
   722  000BCA  0E85               	movlw	133
   723  000BCC                     u2217:
   724  000BCC  2EE8               	decfsz	wreg,f,c
   725  000BCE  D7FE               	bra	u2217
   726  000BD0  F000               	nop	
   727  000BD2                     l2756:
   728                           
   729                           ;main.c: 115:          while(Get_Distance_Front()<=12)
   730  000BD2  0E00               	movlw	0
   731  000BD4  6E1E               	movwf	___flge@ff1^0,c
   732  000BD6  0E00               	movlw	0
   733  000BD8  6E1F               	movwf	(___flge@ff1+1)^0,c
   734  000BDA  0E40               	movlw	64
   735  000BDC  6E20               	movwf	(___flge@ff1+2)^0,c
   736  000BDE  0E41               	movlw	65
   737  000BE0  6E21               	movwf	(___flge@ff1+3)^0,c
   738  000BE2  EC0B  F008         	call	_Get_Distance_Front	;wreg free
   739  000BE6  C01A  F022         	movff	?_Get_Distance_Front,___flge@ff2
   740  000BEA  C01B  F023         	movff	?_Get_Distance_Front+1,___flge@ff2+1
   741  000BEE  C01C  F024         	movff	?_Get_Distance_Front+2,___flge@ff2+2
   742  000BF2  C01D  F025         	movff	?_Get_Distance_Front+3,___flge@ff2+3
   743  000BF6  EC0B  F007         	call	___flge	;wreg free
   744  000BFA  B0D8               	btfsc	status,0,c
   745  000BFC  EF02  F006         	goto	u2181
   746  000C00  EF04  F006         	goto	u2180
   747  000C04                     u2181:
   748  000C04  EFDE  F005         	goto	l2750
   749  000C08                     u2180:
   750  000C08  EF11  F006         	goto	l2764
   751  000C0C                     l2758:
   752                           
   753                           ;main.c: 123:          {;main.c: 124:           Chair_Position("STOP");
   754  000C0C  0E32               	movlw	low STR_5
   755  000C0E  6E06               	movwf	Chair_Position@Command^0,c
   756  000C10  0E02               	movlw	high STR_5
   757  000C12  6E07               	movwf	(Chair_Position@Command+1)^0,c
   758  000C14  EC89  F008         	call	_Chair_Position	;wreg free
   759  000C18  848B               	bsf	139,2,c	;volatile
   760  000C1A                     
   761                           ;main.c: 126:            _delay((unsigned long)((200)*(8000000/4000000.0)));
   762  000C1A  0E85               	movlw	133
   763  000C1C                     u2227:
   764  000C1C  2EE8               	decfsz	wreg,f,c
   765  000C1E  D7FE               	bra	u2227
   766  000C20  F000               	nop	
   767  000C22                     l2764:
   768                           
   769                           ;main.c: 122:          while(Get_Distance_Rear()<=12)
   770  000C22  0E00               	movlw	0
   771  000C24  6E1E               	movwf	___flge@ff1^0,c
   772  000C26  0E00               	movlw	0
   773  000C28  6E1F               	movwf	(___flge@ff1+1)^0,c
   774  000C2A  0E40               	movlw	64
   775  000C2C  6E20               	movwf	(___flge@ff1+2)^0,c
   776  000C2E  0E41               	movlw	65
   777  000C30  6E21               	movwf	(___flge@ff1+3)^0,c
   778  000C32  EC8D  F007         	call	_Get_Distance_Rear	;wreg free
   779  000C36  C01A  F022         	movff	?_Get_Distance_Rear,___flge@ff2
   780  000C3A  C01B  F023         	movff	?_Get_Distance_Rear+1,___flge@ff2+1
   781  000C3E  C01C  F024         	movff	?_Get_Distance_Rear+2,___flge@ff2+2
   782  000C42  C01D  F025         	movff	?_Get_Distance_Rear+3,___flge@ff2+3
   783  000C46  EC0B  F007         	call	___flge	;wreg free
   784  000C4A  B0D8               	btfsc	status,0,c
   785  000C4C  EF2A  F006         	goto	u2191
   786  000C50  EF2C  F006         	goto	u2190
   787  000C54                     u2191:
   788  000C54  EF06  F006         	goto	l2758
   789  000C58                     u2190:
   790  000C58  948B               	bcf	139,2,c	;volatile
   791  000C5A  EF66  F005         	goto	l2714
   792  000C5E  EF00  F000         	goto	start
   793  000C62                     __end_of_main:
   794                           	opt callstack 0
   795                           
   796 ;; *************** function ___flge *****************
   797 ;; Defined at:
   798 ;;		line 4 in file "C:\Program Files (x86)\Microchip\xc8\v2.10\pic\sources\c99\common\flge.c"
   799 ;; Parameters:    Size  Location     Type
   800 ;;  ff1             4   29[COMRAM] void 
   801 ;;  ff2             4   33[COMRAM] void 
   802 ;; Auto vars:     Size  Location     Type
   803 ;;		None
   804 ;; Return value:  Size  Location     Type
   805 ;;		None               void
   806 ;; Registers used:
   807 ;;		wreg, status,2, status,0
   808 ;; Tracked objects:
   809 ;;		On entry : 0/0
   810 ;;		On exit  : 0/0
   811 ;;		Unchanged: 0/0
   812 ;; Data sizes:     COMRAM   BANK0   BANK1
   813 ;;      Params:         8       0       0
   814 ;;      Locals:         0       0       0
   815 ;;      Temps:          4       0       0
   816 ;;      Totals:        12       0       0
   817 ;;Total ram usage:       12 bytes
   818 ;; Hardware stack levels used:    1
   819 ;; This function calls:
   820 ;;		Nothing
   821 ;; This function is called by:
   822 ;;		_main
   823 ;; This function uses a non-reentrant model
   824 ;;
   825                           
   826                           	psect	text1
   827  000E16                     __ptext1:
   828                           	opt callstack 0
   829  000E16                     ___flge:
   830                           	opt callstack 30
   831  000E16  0E00               	movlw	0
   832  000E18  141E               	andwf	___flge@ff1^0,w,c
   833  000E1A  6E26               	movwf	??___flge^0,c
   834  000E1C  0E00               	movlw	0
   835  000E1E  141F               	andwf	(___flge@ff1+1)^0,w,c
   836  000E20  6E27               	movwf	(??___flge+1)^0,c
   837  000E22  0E80               	movlw	128
   838  000E24  1420               	andwf	(___flge@ff1+2)^0,w,c
   839  000E26  6E28               	movwf	(??___flge+2)^0,c
   840  000E28  0E7F               	movlw	127
   841  000E2A  1421               	andwf	(___flge@ff1+3)^0,w,c
   842  000E2C  6E29               	movwf	(??___flge+3)^0,c
   843  000E2E  5026               	movf	??___flge^0,w,c
   844  000E30  1027               	iorwf	(??___flge+1)^0,w,c
   845  000E32  1028               	iorwf	(??___flge+2)^0,w,c
   846  000E34  1029               	iorwf	(??___flge+3)^0,w,c
   847  000E36  A4D8               	btfss	status,2,c
   848  000E38  EF20  F007         	goto	u2071
   849  000E3C  EF22  F007         	goto	u2070
   850  000E40                     u2071:
   851  000E40  EF2A  F007         	goto	l2678
   852  000E44                     u2070:
   853  000E44  0E00               	movlw	0
   854  000E46  6E1E               	movwf	___flge@ff1^0,c
   855  000E48  0E00               	movlw	0
   856  000E4A  6E1F               	movwf	(___flge@ff1+1)^0,c
   857  000E4C  0E00               	movlw	0
   858  000E4E  6E20               	movwf	(___flge@ff1+2)^0,c
   859  000E50  0E00               	movlw	0
   860  000E52  6E21               	movwf	(___flge@ff1+3)^0,c
   861  000E54                     l2678:
   862  000E54  0E00               	movlw	0
   863  000E56  1422               	andwf	___flge@ff2^0,w,c
   864  000E58  6E26               	movwf	??___flge^0,c
   865  000E5A  0E00               	movlw	0
   866  000E5C  1423               	andwf	(___flge@ff2+1)^0,w,c
   867  000E5E  6E27               	movwf	(??___flge+1)^0,c
   868  000E60  0E80               	movlw	128
   869  000E62  1424               	andwf	(___flge@ff2+2)^0,w,c
   870  000E64  6E28               	movwf	(??___flge+2)^0,c
   871  000E66  0E7F               	movlw	127
   872  000E68  1425               	andwf	(___flge@ff2+3)^0,w,c
   873  000E6A  6E29               	movwf	(??___flge+3)^0,c
   874  000E6C  5026               	movf	??___flge^0,w,c
   875  000E6E  1027               	iorwf	(??___flge+1)^0,w,c
   876  000E70  1028               	iorwf	(??___flge+2)^0,w,c
   877  000E72  1029               	iorwf	(??___flge+3)^0,w,c
   878  000E74  A4D8               	btfss	status,2,c
   879  000E76  EF3F  F007         	goto	u2081
   880  000E7A  EF41  F007         	goto	u2080
   881  000E7E                     u2081:
   882  000E7E  EF49  F007         	goto	l2682
   883  000E82                     u2080:
   884  000E82  0E00               	movlw	0
   885  000E84  6E22               	movwf	___flge@ff2^0,c
   886  000E86  0E00               	movlw	0
   887  000E88  6E23               	movwf	(___flge@ff2+1)^0,c
   888  000E8A  0E00               	movlw	0
   889  000E8C  6E24               	movwf	(___flge@ff2+2)^0,c
   890  000E8E  0E00               	movlw	0
   891  000E90  6E25               	movwf	(___flge@ff2+3)^0,c
   892  000E92                     l2682:
   893  000E92  AE21               	btfss	(___flge@ff1+3)^0,7,c
   894  000E94  EF4E  F007         	goto	u2091
   895  000E98  EF50  F007         	goto	u2090
   896  000E9C                     u2091:
   897  000E9C  EF59  F007         	goto	l2686
   898  000EA0                     u2090:
   899  000EA0  6C1E               	negf	___flge@ff1^0,c
   900  000EA2  1E1F               	comf	(___flge@ff1+1)^0,f,c
   901  000EA4  B0D8               	btfsc	status,0,c
   902  000EA6  2A1F               	incf	(___flge@ff1+1)^0,f,c
   903  000EA8  1E20               	comf	(___flge@ff1+2)^0,f,c
   904  000EAA  B0D8               	btfsc	status,0,c
   905  000EAC  2A20               	incf	(___flge@ff1+2)^0,f,c
   906  000EAE  0E80               	movlw	128
   907  000EB0  5621               	subfwb	(___flge@ff1+3)^0,f,c
   908  000EB2                     l2686:
   909  000EB2  AE25               	btfss	(___flge@ff2+3)^0,7,c
   910  000EB4  EF5E  F007         	goto	u2101
   911  000EB8  EF60  F007         	goto	u2100
   912  000EBC                     u2101:
   913  000EBC  EF69  F007         	goto	l816
   914  000EC0                     u2100:
   915  000EC0  6C22               	negf	___flge@ff2^0,c
   916  000EC2  1E23               	comf	(___flge@ff2+1)^0,f,c
   917  000EC4  B0D8               	btfsc	status,0,c
   918  000EC6  2A23               	incf	(___flge@ff2+1)^0,f,c
   919  000EC8  1E24               	comf	(___flge@ff2+2)^0,f,c
   920  000ECA  B0D8               	btfsc	status,0,c
   921  000ECC  2A24               	incf	(___flge@ff2+2)^0,f,c
   922  000ECE  0E80               	movlw	128
   923  000ED0  5625               	subfwb	(___flge@ff2+3)^0,f,c
   924  000ED2                     l816:
   925  000ED2  0E00               	movlw	0
   926  000ED4  1A1E               	xorwf	___flge@ff1^0,f,c
   927  000ED6  0E00               	movlw	0
   928  000ED8  1A1F               	xorwf	(___flge@ff1+1)^0,f,c
   929  000EDA  0E00               	movlw	0
   930  000EDC  1A20               	xorwf	(___flge@ff1+2)^0,f,c
   931  000EDE  0E80               	movlw	128
   932  000EE0  1A21               	xorwf	(___flge@ff1+3)^0,f,c
   933  000EE2  0E00               	movlw	0
   934  000EE4  1A22               	xorwf	___flge@ff2^0,f,c
   935  000EE6  0E00               	movlw	0
   936  000EE8  1A23               	xorwf	(___flge@ff2+1)^0,f,c
   937  000EEA  0E00               	movlw	0
   938  000EEC  1A24               	xorwf	(___flge@ff2+2)^0,f,c
   939  000EEE  0E80               	movlw	128
   940  000EF0  1A25               	xorwf	(___flge@ff2+3)^0,f,c
   941  000EF2  5022               	movf	___flge@ff2^0,w,c
   942  000EF4  5C1E               	subwf	___flge@ff1^0,w,c
   943  000EF6  5023               	movf	(___flge@ff2+1)^0,w,c
   944  000EF8  581F               	subwfb	(___flge@ff1+1)^0,w,c
   945  000EFA  5024               	movf	(___flge@ff2+2)^0,w,c
   946  000EFC  5820               	subwfb	(___flge@ff1+2)^0,w,c
   947  000EFE  5025               	movf	(___flge@ff2+3)^0,w,c
   948  000F00  5821               	subwfb	(___flge@ff1+3)^0,w,c
   949  000F02  B0D8               	btfsc	status,0,c
   950  000F04  EF86  F007         	goto	u2111
   951  000F08  EF88  F007         	goto	u2110
   952  000F0C                     u2111:
   953  000F0C  EF8B  F007         	goto	l2692
   954  000F10                     u2110:
   955  000F10  90D8               	bcf	status,0,c
   956  000F12  EF8C  F007         	goto	l821
   957  000F16                     l2692:
   958  000F16  80D8               	bsf	status,0,c
   959  000F18                     l821:
   960  000F18  0012               	return		;funcret
   961  000F1A                     __end_of___flge:
   962                           	opt callstack 0
   963                           
   964 ;; *************** function _SYSTEM_Initialize *****************
   965 ;; Defined at:
   966 ;;		line 50 in file "mcc_generated_files/mcc.c"
   967 ;; Parameters:    Size  Location     Type
   968 ;;		None
   969 ;; Auto vars:     Size  Location     Type
   970 ;;		None
   971 ;; Return value:  Size  Location     Type
   972 ;;                  1    wreg      void 
   973 ;; Registers used:
   974 ;;		wreg, status,2, status,0, cstack
   975 ;; Tracked objects:
   976 ;;		On entry : 0/0
   977 ;;		On exit  : 0/0
   978 ;;		Unchanged: 0/0
   979 ;; Data sizes:     COMRAM   BANK0   BANK1
   980 ;;      Params:         0       0       0
   981 ;;      Locals:         0       0       0
   982 ;;      Temps:          0       0       0
   983 ;;      Totals:         0       0       0
   984 ;;Total ram usage:        0 bytes
   985 ;; Hardware stack levels used:    1
   986 ;; Hardware stack levels required when called:    2
   987 ;; This function calls:
   988 ;;		_EUSART1_Initialize
   989 ;;		_EUSART2_Initialize
   990 ;;		_OSCILLATOR_Initialize
   991 ;;		_PIN_MANAGER_Initialize
   992 ;;		_TMR1_Initialize
   993 ;; This function is called by:
   994 ;;		_main
   995 ;; This function uses a non-reentrant model
   996 ;;
   997                           
   998                           	psect	text2
   999  0015E8                     __ptext2:
  1000                           	opt callstack 0
  1001  0015E8                     _SYSTEM_Initialize:
  1002                           	opt callstack 28
  1003  0015E8                     
  1004                           ;mcc_generated_files/mcc.c: 53:     PIN_MANAGER_Initialize();
  1005  0015E8  EC32  F00A         	call	_PIN_MANAGER_Initialize	;wreg free
  1006                           
  1007                           ;mcc_generated_files/mcc.c: 54:     OSCILLATOR_Initialize();
  1008  0015EC  EC09  F00B         	call	_OSCILLATOR_Initialize	;wreg free
  1009                           
  1010                           ;mcc_generated_files/mcc.c: 55:     TMR1_Initialize();
  1011  0015F0  ECDB  F00A         	call	_TMR1_Initialize	;wreg free
  1012  0015F4                     
  1013                           ;mcc_generated_files/mcc.c: 56:     EUSART1_Initialize();
  1014  0015F4  EC74  F00A         	call	_EUSART1_Initialize	;wreg free
  1015  0015F8                     
  1016                           ;mcc_generated_files/mcc.c: 57:     EUSART2_Initialize();
  1017  0015F8  EC55  F00A         	call	_EUSART2_Initialize	;wreg free
  1018  0015FC  0012               	return		;funcret
  1019  0015FE                     __end_of_SYSTEM_Initialize:
  1020                           	opt callstack 0
  1021                           
  1022 ;; *************** function _TMR1_Initialize *****************
  1023 ;; Defined at:
  1024 ;;		line 63 in file "mcc_generated_files/tmr1.c"
  1025 ;; Parameters:    Size  Location     Type
  1026 ;;		None
  1027 ;; Auto vars:     Size  Location     Type
  1028 ;;		None
  1029 ;; Return value:  Size  Location     Type
  1030 ;;                  1    wreg      void 
  1031 ;; Registers used:
  1032 ;;		wreg, status,2
  1033 ;; Tracked objects:
  1034 ;;		On entry : 0/0
  1035 ;;		On exit  : 0/0
  1036 ;;		Unchanged: 0/0
  1037 ;; Data sizes:     COMRAM   BANK0   BANK1
  1038 ;;      Params:         0       0       0
  1039 ;;      Locals:         0       0       0
  1040 ;;      Temps:          0       0       0
  1041 ;;      Totals:         0       0       0
  1042 ;;Total ram usage:        0 bytes
  1043 ;; Hardware stack levels used:    1
  1044 ;; This function calls:
  1045 ;;		Nothing
  1046 ;; This function is called by:
  1047 ;;		_SYSTEM_Initialize
  1048 ;; This function uses a non-reentrant model
  1049 ;;
  1050                           
  1051                           	psect	text3
  1052  0015B6                     __ptext3:
  1053                           	opt callstack 0
  1054  0015B6                     _TMR1_Initialize:
  1055                           	opt callstack 29
  1056  0015B6                     
  1057                           ;mcc_generated_files/tmr1.c: 68:     T1GCON = 0x00;
  1058  0015B6  0E00               	movlw	0
  1059  0015B8  6ECC               	movwf	204,c	;volatile
  1060                           
  1061                           ;mcc_generated_files/tmr1.c: 71:     TMR1H = 0x00;
  1062  0015BA  0E00               	movlw	0
  1063  0015BC  6ECF               	movwf	207,c	;volatile
  1064                           
  1065                           ;mcc_generated_files/tmr1.c: 74:     TMR1L = 0x00;
  1066  0015BE  0E00               	movlw	0
  1067  0015C0  6ECE               	movwf	206,c	;volatile
  1068  0015C2                     
  1069                           ;mcc_generated_files/tmr1.c: 77:     timer1ReloadVal=TMR1;
  1070  0015C2  CFCE F03B          	movff	4046,_timer1ReloadVal	;volatile
  1071  0015C6  CFCF F03C          	movff	4047,_timer1ReloadVal+1	;volatile
  1072  0015CA                     
  1073                           ;mcc_generated_files/tmr1.c: 80:     PIR1bits.TMR1IF = 0;
  1074  0015CA  909E               	bcf	158,0,c	;volatile
  1075                           
  1076                           ;mcc_generated_files/tmr1.c: 83:     T1CON = 0x13;
  1077  0015CC  0E13               	movlw	19
  1078  0015CE  6ECD               	movwf	205,c	;volatile
  1079  0015D0  0012               	return		;funcret
  1080  0015D2                     __end_of_TMR1_Initialize:
  1081                           	opt callstack 0
  1082                           
  1083 ;; *************** function _PIN_MANAGER_Initialize *****************
  1084 ;; Defined at:
  1085 ;;		line 55 in file "mcc_generated_files/pin_manager.c"
  1086 ;; Parameters:    Size  Location     Type
  1087 ;;		None
  1088 ;; Auto vars:     Size  Location     Type
  1089 ;;		None
  1090 ;; Return value:  Size  Location     Type
  1091 ;;                  1    wreg      void 
  1092 ;; Registers used:
  1093 ;;		wreg, status,2
  1094 ;; Tracked objects:
  1095 ;;		On entry : 0/0
  1096 ;;		On exit  : 0/0
  1097 ;;		Unchanged: 0/0
  1098 ;; Data sizes:     COMRAM   BANK0   BANK1
  1099 ;;      Params:         0       0       0
  1100 ;;      Locals:         0       0       0
  1101 ;;      Temps:          0       0       0
  1102 ;;      Totals:         0       0       0
  1103 ;;Total ram usage:        0 bytes
  1104 ;; Hardware stack levels used:    1
  1105 ;; This function calls:
  1106 ;;		Nothing
  1107 ;; This function is called by:
  1108 ;;		_SYSTEM_Initialize
  1109 ;; This function uses a non-reentrant model
  1110 ;;
  1111                           
  1112                           	psect	text4
  1113  001464                     __ptext4:
  1114                           	opt callstack 0
  1115  001464                     _PIN_MANAGER_Initialize:
  1116                           	opt callstack 29
  1117  001464                     
  1118                           ;mcc_generated_files/pin_manager.c: 60:     LATE = 0x00;
  1119  001464  0E00               	movlw	0
  1120  001466  6E8D               	movwf	141,c	;volatile
  1121                           
  1122                           ;mcc_generated_files/pin_manager.c: 61:     LATD = 0x04;
  1123  001468  0E04               	movlw	4
  1124  00146A  6E8C               	movwf	140,c	;volatile
  1125                           
  1126                           ;mcc_generated_files/pin_manager.c: 62:     LATA = 0x08;
  1127  00146C  0E08               	movlw	8
  1128  00146E  6E89               	movwf	137,c	;volatile
  1129                           
  1130                           ;mcc_generated_files/pin_manager.c: 63:     LATB = 0x00;
  1131  001470  0E00               	movlw	0
  1132  001472  6E8A               	movwf	138,c	;volatile
  1133                           
  1134                           ;mcc_generated_files/pin_manager.c: 64:     LATC = 0x00;
  1135  001474  0E00               	movlw	0
  1136  001476  6E8B               	movwf	139,c	;volatile
  1137                           
  1138                           ;mcc_generated_files/pin_manager.c: 69:     TRISE = 0x06;
  1139  001478  0E06               	movlw	6
  1140  00147A  6E96               	movwf	150,c	;volatile
  1141                           
  1142                           ;mcc_generated_files/pin_manager.c: 70:     TRISA = 0x00;
  1143  00147C  0E00               	movlw	0
  1144  00147E  6E92               	movwf	146,c	;volatile
  1145                           
  1146                           ;mcc_generated_files/pin_manager.c: 71:     TRISB = 0xFD;
  1147  001480  0EFD               	movlw	253
  1148  001482  6E93               	movwf	147,c	;volatile
  1149                           
  1150                           ;mcc_generated_files/pin_manager.c: 72:     TRISC = 0xA8;
  1151  001484  0EA8               	movlw	168
  1152  001486  6E94               	movwf	148,c	;volatile
  1153                           
  1154                           ;mcc_generated_files/pin_manager.c: 73:     TRISD = 0xB6;
  1155  001488  0EB6               	movlw	182
  1156  00148A  6E95               	movwf	149,c	;volatile
  1157                           
  1158                           ;mcc_generated_files/pin_manager.c: 78:     ANSELD = 0x38;
  1159  00148C  0E38               	movlw	56
  1160  00148E  010F               	movlb	15	; () banked
  1161  001490  6F3B               	movwf	59,b	;volatile
  1162                           
  1163                           ;mcc_generated_files/pin_manager.c: 79:     ANSELC = 0x0C;
  1164  001492  0E0C               	movlw	12
  1165  001494  6F3A               	movwf	58,b	;volatile
  1166                           
  1167                           ;mcc_generated_files/pin_manager.c: 80:     ANSELB = 0x3C;
  1168  001496  0E3C               	movlw	60
  1169  001498  6F39               	movwf	57,b	;volatile
  1170                           
  1171                           ;mcc_generated_files/pin_manager.c: 81:     ANSELE = 0x06;
  1172  00149A  0E06               	movlw	6
  1173  00149C  6F3C               	movwf	60,b	;volatile
  1174                           
  1175                           ;mcc_generated_files/pin_manager.c: 82:     ANSELA = 0x00;
  1176  00149E  0E00               	movlw	0
  1177  0014A0  6F38               	movwf	56,b	;volatile
  1178                           
  1179                           ;mcc_generated_files/pin_manager.c: 87:     WPUB = 0x00;
  1180  0014A2  0E00               	movlw	0
  1181  0014A4  6E61               	movwf	97,c	;volatile
  1182  0014A6                     
  1183                           ; BSR set to: 15
  1184                           ;mcc_generated_files/pin_manager.c: 88:     INTCON2bits.nRBPU = 1;
  1185  0014A6  8EF1               	bsf	241,7,c	;volatile
  1186  0014A8                     
  1187                           ; BSR set to: 15
  1188  0014A8  0012               	return		;funcret
  1189  0014AA                     __end_of_PIN_MANAGER_Initialize:
  1190                           	opt callstack 0
  1191                           
  1192 ;; *************** function _OSCILLATOR_Initialize *****************
  1193 ;; Defined at:
  1194 ;;		line 60 in file "mcc_generated_files/mcc.c"
  1195 ;; Parameters:    Size  Location     Type
  1196 ;;		None
  1197 ;; Auto vars:     Size  Location     Type
  1198 ;;		None
  1199 ;; Return value:  Size  Location     Type
  1200 ;;                  1    wreg      void 
  1201 ;; Registers used:
  1202 ;;		wreg, status,2
  1203 ;; Tracked objects:
  1204 ;;		On entry : 0/0
  1205 ;;		On exit  : 0/0
  1206 ;;		Unchanged: 0/0
  1207 ;; Data sizes:     COMRAM   BANK0   BANK1
  1208 ;;      Params:         0       0       0
  1209 ;;      Locals:         0       0       0
  1210 ;;      Temps:          0       0       0
  1211 ;;      Totals:         0       0       0
  1212 ;;Total ram usage:        0 bytes
  1213 ;; Hardware stack levels used:    1
  1214 ;; This function calls:
  1215 ;;		Nothing
  1216 ;; This function is called by:
  1217 ;;		_SYSTEM_Initialize
  1218 ;; This function uses a non-reentrant model
  1219 ;;
  1220                           
  1221                           	psect	text5
  1222  001612                     __ptext5:
  1223                           	opt callstack 0
  1224  001612                     _OSCILLATOR_Initialize:
  1225                           	opt callstack 29
  1226  001612                     
  1227                           ;mcc_generated_files/mcc.c: 63:     OSCCON = 0x60;
  1228  001612  0E60               	movlw	96
  1229  001614  6ED3               	movwf	211,c	;volatile
  1230                           
  1231                           ;mcc_generated_files/mcc.c: 65:     OSCCON2 = 0x04;
  1232  001616  0E04               	movlw	4
  1233  001618  6ED2               	movwf	210,c	;volatile
  1234                           
  1235                           ;mcc_generated_files/mcc.c: 67:     OSCTUNE = 0x00;
  1236  00161A  0E00               	movlw	0
  1237  00161C  6E9B               	movwf	155,c	;volatile
  1238  00161E  0012               	return		;funcret
  1239  001620                     __end_of_OSCILLATOR_Initialize:
  1240                           	opt callstack 0
  1241                           
  1242 ;; *************** function _EUSART2_Initialize *****************
  1243 ;; Defined at:
  1244 ;;		line 66 in file "mcc_generated_files/eusart2.c"
  1245 ;; Parameters:    Size  Location     Type
  1246 ;;		None
  1247 ;; Auto vars:     Size  Location     Type
  1248 ;;		None
  1249 ;; Return value:  Size  Location     Type
  1250 ;;                  1    wreg      void 
  1251 ;; Registers used:
  1252 ;;		wreg, status,2, status,0, cstack
  1253 ;; Tracked objects:
  1254 ;;		On entry : 0/0
  1255 ;;		On exit  : 0/0
  1256 ;;		Unchanged: 0/0
  1257 ;; Data sizes:     COMRAM   BANK0   BANK1
  1258 ;;      Params:         0       0       0
  1259 ;;      Locals:         0       0       0
  1260 ;;      Temps:          0       0       0
  1261 ;;      Totals:         0       0       0
  1262 ;;Total ram usage:        0 bytes
  1263 ;; Hardware stack levels used:    1
  1264 ;; Hardware stack levels required when called:    1
  1265 ;; This function calls:
  1266 ;;		_EUSART2_SetErrorHandler
  1267 ;;		_EUSART2_SetFramingErrorHandler
  1268 ;;		_EUSART2_SetOverrunErrorHandler
  1269 ;; This function is called by:
  1270 ;;		_SYSTEM_Initialize
  1271 ;; This function uses a non-reentrant model
  1272 ;;
  1273                           
  1274                           	psect	text6
  1275  0014AA                     __ptext6:
  1276                           	opt callstack 0
  1277  0014AA                     _EUSART2_Initialize:
  1278                           	opt callstack 28
  1279  0014AA                     
  1280                           ;mcc_generated_files/eusart2.c: 71:     BAUDCON2 = 0x08;
  1281  0014AA  0E08               	movlw	8
  1282  0014AC  6E70               	movwf	112,c	;volatile
  1283                           
  1284                           ;mcc_generated_files/eusart2.c: 74:     RCSTA2 = 0x90;
  1285  0014AE  0E90               	movlw	144
  1286  0014B0  6E71               	movwf	113,c	;volatile
  1287                           
  1288                           ;mcc_generated_files/eusart2.c: 77:     TXSTA2 = 0x24;
  1289  0014B2  0E24               	movlw	36
  1290  0014B4  6E72               	movwf	114,c	;volatile
  1291                           
  1292                           ;mcc_generated_files/eusart2.c: 80:     SPBRG2 = 0xCF;
  1293  0014B6  0ECF               	movlw	207
  1294  0014B8  6E75               	movwf	117,c	;volatile
  1295                           
  1296                           ;mcc_generated_files/eusart2.c: 83:     SPBRGH2 = 0x00;
  1297  0014BA  0E00               	movlw	0
  1298  0014BC  6E76               	movwf	118,c	;volatile
  1299  0014BE                     
  1300                           ;mcc_generated_files/eusart2.c: 86:     EUSART2_SetFramingErrorHandler(EUSART2_DefaultFr
      +                          amingErrorHandler);
  1301  0014BE  0E00               	movlw	0
  1302  0014C0  6E01               	movwf	EUSART2_SetFramingErrorHandler@interruptHandler^0,c
  1303  0014C2  0E00               	movlw	0
  1304  0014C4  6E02               	movwf	(EUSART2_SetFramingErrorHandler@interruptHandler+1)^0,c
  1305  0014C6  EC15  F00B         	call	_EUSART2_SetFramingErrorHandler	;wreg free
  1306  0014CA                     
  1307                           ;mcc_generated_files/eusart2.c: 87:     EUSART2_SetOverrunErrorHandler(EUSART2_DefaultOv
      +                          errunErrorHandler);
  1308  0014CA  0E00               	movlw	0
  1309  0014CC  6E01               	movwf	EUSART2_SetOverrunErrorHandler@interruptHandler^0,c
  1310  0014CE  0E00               	movlw	0
  1311  0014D0  6E02               	movwf	(EUSART2_SetOverrunErrorHandler@interruptHandler+1)^0,c
  1312  0014D2  EC10  F00B         	call	_EUSART2_SetOverrunErrorHandler	;wreg free
  1313  0014D6                     
  1314                           ;mcc_generated_files/eusart2.c: 88:     EUSART2_SetErrorHandler(EUSART2_DefaultErrorHand
      +                          ler);
  1315  0014D6  0E00               	movlw	0
  1316  0014D8  6E01               	movwf	EUSART2_SetErrorHandler@interruptHandler^0,c
  1317  0014DA  0E00               	movlw	0
  1318  0014DC  6E02               	movwf	(EUSART2_SetErrorHandler@interruptHandler+1)^0,c
  1319  0014DE  EC1A  F00B         	call	_EUSART2_SetErrorHandler	;wreg free
  1320  0014E2                     
  1321                           ;mcc_generated_files/eusart2.c: 90:     eusart2RxLastError.status = 0;
  1322  0014E2  0E00               	movlw	0
  1323  0014E4  6E4B               	movwf	_eusart2RxLastError^0,c	;volatile
  1324  0014E6  0012               	return		;funcret
  1325  0014E8                     __end_of_EUSART2_Initialize:
  1326                           	opt callstack 0
  1327                           
  1328 ;; *************** function _EUSART2_SetOverrunErrorHandler *****************
  1329 ;; Defined at:
  1330 ;;		line 161 in file "mcc_generated_files/eusart2.c"
  1331 ;; Parameters:    Size  Location     Type
  1332 ;;  interruptHan    2    0[COMRAM] PTR FTN()void 
  1333 ;;		 -> EUSART2_DefaultOverrunErrorHandler(1), 
  1334 ;; Auto vars:     Size  Location     Type
  1335 ;;		None
  1336 ;; Return value:  Size  Location     Type
  1337 ;;                  1    wreg      void 
  1338 ;; Registers used:
  1339 ;;		wreg, status,2, status,0
  1340 ;; Tracked objects:
  1341 ;;		On entry : 0/0
  1342 ;;		On exit  : 0/0
  1343 ;;		Unchanged: 0/0
  1344 ;; Data sizes:     COMRAM   BANK0   BANK1
  1345 ;;      Params:         2       0       0
  1346 ;;      Locals:         0       0       0
  1347 ;;      Temps:          0       0       0
  1348 ;;      Totals:         2       0       0
  1349 ;;Total ram usage:        2 bytes
  1350 ;; Hardware stack levels used:    1
  1351 ;; This function calls:
  1352 ;;		Nothing
  1353 ;; This function is called by:
  1354 ;;		_EUSART2_Initialize
  1355 ;; This function uses a non-reentrant model
  1356 ;;
  1357                           
  1358                           	psect	text7
  1359  001620                     __ptext7:
  1360                           	opt callstack 0
  1361  001620                     _EUSART2_SetOverrunErrorHandler:
  1362                           	opt callstack 28
  1363  001620                     
  1364                           ;mcc_generated_files/eusart2.c: 162:     EUSART2_OverrunErrorHandler = interruptHandler;
  1365  001620  C001  F037         	movff	EUSART2_SetOverrunErrorHandler@interruptHandler,_EUSART2_OverrunErrorHandler
  1366  001624  C002  F038         	movff	EUSART2_SetOverrunErrorHandler@interruptHandler+1,_EUSART2_OverrunErrorHandler+1
  1367  001628  0012               	return		;funcret
  1368  00162A                     __end_of_EUSART2_SetOverrunErrorHandler:
  1369                           	opt callstack 0
  1370                           
  1371 ;; *************** function _EUSART2_SetFramingErrorHandler *****************
  1372 ;; Defined at:
  1373 ;;		line 157 in file "mcc_generated_files/eusart2.c"
  1374 ;; Parameters:    Size  Location     Type
  1375 ;;  interruptHan    2    0[COMRAM] PTR FTN()void 
  1376 ;;		 -> EUSART2_DefaultFramingErrorHandler(1), 
  1377 ;; Auto vars:     Size  Location     Type
  1378 ;;		None
  1379 ;; Return value:  Size  Location     Type
  1380 ;;                  1    wreg      void 
  1381 ;; Registers used:
  1382 ;;		wreg, status,2, status,0
  1383 ;; Tracked objects:
  1384 ;;		On entry : 0/0
  1385 ;;		On exit  : 0/0
  1386 ;;		Unchanged: 0/0
  1387 ;; Data sizes:     COMRAM   BANK0   BANK1
  1388 ;;      Params:         2       0       0
  1389 ;;      Locals:         0       0       0
  1390 ;;      Temps:          0       0       0
  1391 ;;      Totals:         2       0       0
  1392 ;;Total ram usage:        2 bytes
  1393 ;; Hardware stack levels used:    1
  1394 ;; This function calls:
  1395 ;;		Nothing
  1396 ;; This function is called by:
  1397 ;;		_EUSART2_Initialize
  1398 ;; This function uses a non-reentrant model
  1399 ;;
  1400                           
  1401                           	psect	text8
  1402  00162A                     __ptext8:
  1403                           	opt callstack 0
  1404  00162A                     _EUSART2_SetFramingErrorHandler:
  1405                           	opt callstack 28
  1406  00162A                     
  1407                           ;mcc_generated_files/eusart2.c: 158:     EUSART2_FramingErrorHandler = interruptHandler;
  1408  00162A  C001  F039         	movff	EUSART2_SetFramingErrorHandler@interruptHandler,_EUSART2_FramingErrorHandler
  1409  00162E  C002  F03A         	movff	EUSART2_SetFramingErrorHandler@interruptHandler+1,_EUSART2_FramingErrorHandler+1
  1410  001632  0012               	return		;funcret
  1411  001634                     __end_of_EUSART2_SetFramingErrorHandler:
  1412                           	opt callstack 0
  1413                           
  1414 ;; *************** function _EUSART2_SetErrorHandler *****************
  1415 ;; Defined at:
  1416 ;;		line 165 in file "mcc_generated_files/eusart2.c"
  1417 ;; Parameters:    Size  Location     Type
  1418 ;;  interruptHan    2    0[COMRAM] PTR FTN()void 
  1419 ;;		 -> EUSART2_DefaultErrorHandler(1), 
  1420 ;; Auto vars:     Size  Location     Type
  1421 ;;		None
  1422 ;; Return value:  Size  Location     Type
  1423 ;;                  1    wreg      void 
  1424 ;; Registers used:
  1425 ;;		wreg, status,2, status,0
  1426 ;; Tracked objects:
  1427 ;;		On entry : 0/0
  1428 ;;		On exit  : 0/0
  1429 ;;		Unchanged: 0/0
  1430 ;; Data sizes:     COMRAM   BANK0   BANK1
  1431 ;;      Params:         2       0       0
  1432 ;;      Locals:         0       0       0
  1433 ;;      Temps:          0       0       0
  1434 ;;      Totals:         2       0       0
  1435 ;;Total ram usage:        2 bytes
  1436 ;; Hardware stack levels used:    1
  1437 ;; This function calls:
  1438 ;;		Nothing
  1439 ;; This function is called by:
  1440 ;;		_EUSART2_Initialize
  1441 ;; This function uses a non-reentrant model
  1442 ;;
  1443                           
  1444                           	psect	text9
  1445  001634                     __ptext9:
  1446                           	opt callstack 0
  1447  001634                     _EUSART2_SetErrorHandler:
  1448                           	opt callstack 28
  1449  001634                     
  1450                           ;mcc_generated_files/eusart2.c: 166:     EUSART2_ErrorHandler = interruptHandler;
  1451  001634  C001  F035         	movff	EUSART2_SetErrorHandler@interruptHandler,_EUSART2_ErrorHandler
  1452  001638  C002  F036         	movff	EUSART2_SetErrorHandler@interruptHandler+1,_EUSART2_ErrorHandler+1
  1453  00163C  0012               	return		;funcret
  1454  00163E                     __end_of_EUSART2_SetErrorHandler:
  1455                           	opt callstack 0
  1456                           
  1457 ;; *************** function _EUSART1_Initialize *****************
  1458 ;; Defined at:
  1459 ;;		line 66 in file "mcc_generated_files/eusart1.c"
  1460 ;; Parameters:    Size  Location     Type
  1461 ;;		None
  1462 ;; Auto vars:     Size  Location     Type
  1463 ;;		None
  1464 ;; Return value:  Size  Location     Type
  1465 ;;                  1    wreg      void 
  1466 ;; Registers used:
  1467 ;;		wreg, status,2, status,0, cstack
  1468 ;; Tracked objects:
  1469 ;;		On entry : 0/0
  1470 ;;		On exit  : 0/0
  1471 ;;		Unchanged: 0/0
  1472 ;; Data sizes:     COMRAM   BANK0   BANK1
  1473 ;;      Params:         0       0       0
  1474 ;;      Locals:         0       0       0
  1475 ;;      Temps:          0       0       0
  1476 ;;      Totals:         0       0       0
  1477 ;;Total ram usage:        0 bytes
  1478 ;; Hardware stack levels used:    1
  1479 ;; Hardware stack levels required when called:    1
  1480 ;; This function calls:
  1481 ;;		_EUSART1_SetErrorHandler
  1482 ;;		_EUSART1_SetFramingErrorHandler
  1483 ;;		_EUSART1_SetOverrunErrorHandler
  1484 ;; This function is called by:
  1485 ;;		_SYSTEM_Initialize
  1486 ;; This function uses a non-reentrant model
  1487 ;;
  1488                           
  1489                           	psect	text10
  1490  0014E8                     __ptext10:
  1491                           	opt callstack 0
  1492  0014E8                     _EUSART1_Initialize:
  1493                           	opt callstack 28
  1494  0014E8                     
  1495                           ;mcc_generated_files/eusart1.c: 71:     BAUDCON1 = 0x08;
  1496  0014E8  0E08               	movlw	8
  1497  0014EA  6EB8               	movwf	184,c	;volatile
  1498                           
  1499                           ;mcc_generated_files/eusart1.c: 74:     RCSTA1 = 0x90;
  1500  0014EC  0E90               	movlw	144
  1501  0014EE  6EAB               	movwf	171,c	;volatile
  1502                           
  1503                           ;mcc_generated_files/eusart1.c: 77:     TXSTA1 = 0x24;
  1504  0014F0  0E24               	movlw	36
  1505  0014F2  6EAC               	movwf	172,c	;volatile
  1506                           
  1507                           ;mcc_generated_files/eusart1.c: 80:     SPBRG1 = 0xCF;
  1508  0014F4  0ECF               	movlw	207
  1509  0014F6  6EAF               	movwf	175,c	;volatile
  1510                           
  1511                           ;mcc_generated_files/eusart1.c: 83:     SPBRGH1 = 0x00;
  1512  0014F8  0E00               	movlw	0
  1513  0014FA  6EB0               	movwf	176,c	;volatile
  1514  0014FC                     
  1515                           ;mcc_generated_files/eusart1.c: 86:     EUSART1_SetFramingErrorHandler(EUSART1_DefaultFr
      +                          amingErrorHandler);
  1516  0014FC  0E00               	movlw	0
  1517  0014FE  6E01               	movwf	EUSART1_SetFramingErrorHandler@interruptHandler^0,c
  1518  001500  0E00               	movlw	0
  1519  001502  6E02               	movwf	(EUSART1_SetFramingErrorHandler@interruptHandler+1)^0,c
  1520  001504  EC24  F00B         	call	_EUSART1_SetFramingErrorHandler	;wreg free
  1521  001508                     
  1522                           ;mcc_generated_files/eusart1.c: 87:     EUSART1_SetOverrunErrorHandler(EUSART1_DefaultOv
      +                          errunErrorHandler);
  1523  001508  0E00               	movlw	0
  1524  00150A  6E01               	movwf	EUSART1_SetOverrunErrorHandler@interruptHandler^0,c
  1525  00150C  0E00               	movlw	0
  1526  00150E  6E02               	movwf	(EUSART1_SetOverrunErrorHandler@interruptHandler+1)^0,c
  1527  001510  EC1F  F00B         	call	_EUSART1_SetOverrunErrorHandler	;wreg free
  1528  001514                     
  1529                           ;mcc_generated_files/eusart1.c: 88:     EUSART1_SetErrorHandler(EUSART1_DefaultErrorHand
      +                          ler);
  1530  001514  0E00               	movlw	0
  1531  001516  6E01               	movwf	EUSART1_SetErrorHandler@interruptHandler^0,c
  1532  001518  0E00               	movlw	0
  1533  00151A  6E02               	movwf	(EUSART1_SetErrorHandler@interruptHandler+1)^0,c
  1534  00151C  EC29  F00B         	call	_EUSART1_SetErrorHandler	;wreg free
  1535  001520                     
  1536                           ;mcc_generated_files/eusart1.c: 90:     eusart1RxLastError.status = 0;
  1537  001520  0E00               	movlw	0
  1538  001522  6E4C               	movwf	_eusart1RxLastError^0,c	;volatile
  1539  001524  0012               	return		;funcret
  1540  001526                     __end_of_EUSART1_Initialize:
  1541                           	opt callstack 0
  1542                           
  1543 ;; *************** function _EUSART1_SetOverrunErrorHandler *****************
  1544 ;; Defined at:
  1545 ;;		line 170 in file "mcc_generated_files/eusart1.c"
  1546 ;; Parameters:    Size  Location     Type
  1547 ;;  interruptHan    2    0[COMRAM] PTR FTN()void 
  1548 ;;		 -> EUSART1_DefaultOverrunErrorHandler(1), 
  1549 ;; Auto vars:     Size  Location     Type
  1550 ;;		None
  1551 ;; Return value:  Size  Location     Type
  1552 ;;                  1    wreg      void 
  1553 ;; Registers used:
  1554 ;;		wreg, status,2, status,0
  1555 ;; Tracked objects:
  1556 ;;		On entry : 0/0
  1557 ;;		On exit  : 0/0
  1558 ;;		Unchanged: 0/0
  1559 ;; Data sizes:     COMRAM   BANK0   BANK1
  1560 ;;      Params:         2       0       0
  1561 ;;      Locals:         0       0       0
  1562 ;;      Temps:          0       0       0
  1563 ;;      Totals:         2       0       0
  1564 ;;Total ram usage:        2 bytes
  1565 ;; Hardware stack levels used:    1
  1566 ;; This function calls:
  1567 ;;		Nothing
  1568 ;; This function is called by:
  1569 ;;		_EUSART1_Initialize
  1570 ;; This function uses a non-reentrant model
  1571 ;;
  1572                           
  1573                           	psect	text11
  1574  00163E                     __ptext11:
  1575                           	opt callstack 0
  1576  00163E                     _EUSART1_SetOverrunErrorHandler:
  1577                           	opt callstack 28
  1578  00163E                     
  1579                           ;mcc_generated_files/eusart1.c: 171:     EUSART1_OverrunErrorHandler = interruptHandler;
  1580  00163E  C001  F03F         	movff	EUSART1_SetOverrunErrorHandler@interruptHandler,_EUSART1_OverrunErrorHandler
  1581  001642  C002  F040         	movff	EUSART1_SetOverrunErrorHandler@interruptHandler+1,_EUSART1_OverrunErrorHandler+1
  1582  001646  0012               	return		;funcret
  1583  001648                     __end_of_EUSART1_SetOverrunErrorHandler:
  1584                           	opt callstack 0
  1585                           
  1586 ;; *************** function _EUSART1_SetFramingErrorHandler *****************
  1587 ;; Defined at:
  1588 ;;		line 166 in file "mcc_generated_files/eusart1.c"
  1589 ;; Parameters:    Size  Location     Type
  1590 ;;  interruptHan    2    0[COMRAM] PTR FTN()void 
  1591 ;;		 -> EUSART1_DefaultFramingErrorHandler(1), 
  1592 ;; Auto vars:     Size  Location     Type
  1593 ;;		None
  1594 ;; Return value:  Size  Location     Type
  1595 ;;                  1    wreg      void 
  1596 ;; Registers used:
  1597 ;;		wreg, status,2, status,0
  1598 ;; Tracked objects:
  1599 ;;		On entry : 0/0
  1600 ;;		On exit  : 0/0
  1601 ;;		Unchanged: 0/0
  1602 ;; Data sizes:     COMRAM   BANK0   BANK1
  1603 ;;      Params:         2       0       0
  1604 ;;      Locals:         0       0       0
  1605 ;;      Temps:          0       0       0
  1606 ;;      Totals:         2       0       0
  1607 ;;Total ram usage:        2 bytes
  1608 ;; Hardware stack levels used:    1
  1609 ;; This function calls:
  1610 ;;		Nothing
  1611 ;; This function is called by:
  1612 ;;		_EUSART1_Initialize
  1613 ;; This function uses a non-reentrant model
  1614 ;;
  1615                           
  1616                           	psect	text12
  1617  001648                     __ptext12:
  1618                           	opt callstack 0
  1619  001648                     _EUSART1_SetFramingErrorHandler:
  1620                           	opt callstack 28
  1621  001648                     
  1622                           ;mcc_generated_files/eusart1.c: 167:     EUSART1_FramingErrorHandler = interruptHandler;
  1623  001648  C001  F041         	movff	EUSART1_SetFramingErrorHandler@interruptHandler,_EUSART1_FramingErrorHandler
  1624  00164C  C002  F042         	movff	EUSART1_SetFramingErrorHandler@interruptHandler+1,_EUSART1_FramingErrorHandler+1
  1625  001650  0012               	return		;funcret
  1626  001652                     __end_of_EUSART1_SetFramingErrorHandler:
  1627                           	opt callstack 0
  1628                           
  1629 ;; *************** function _EUSART1_SetErrorHandler *****************
  1630 ;; Defined at:
  1631 ;;		line 174 in file "mcc_generated_files/eusart1.c"
  1632 ;; Parameters:    Size  Location     Type
  1633 ;;  interruptHan    2    0[COMRAM] PTR FTN()void 
  1634 ;;		 -> EUSART1_DefaultErrorHandler(1), 
  1635 ;; Auto vars:     Size  Location     Type
  1636 ;;		None
  1637 ;; Return value:  Size  Location     Type
  1638 ;;                  1    wreg      void 
  1639 ;; Registers used:
  1640 ;;		wreg, status,2, status,0
  1641 ;; Tracked objects:
  1642 ;;		On entry : 0/0
  1643 ;;		On exit  : 0/0
  1644 ;;		Unchanged: 0/0
  1645 ;; Data sizes:     COMRAM   BANK0   BANK1
  1646 ;;      Params:         2       0       0
  1647 ;;      Locals:         0       0       0
  1648 ;;      Temps:          0       0       0
  1649 ;;      Totals:         2       0       0
  1650 ;;Total ram usage:        2 bytes
  1651 ;; Hardware stack levels used:    1
  1652 ;; This function calls:
  1653 ;;		Nothing
  1654 ;; This function is called by:
  1655 ;;		_EUSART1_Initialize
  1656 ;; This function uses a non-reentrant model
  1657 ;;
  1658                           
  1659                           	psect	text13
  1660  001652                     __ptext13:
  1661                           	opt callstack 0
  1662  001652                     _EUSART1_SetErrorHandler:
  1663                           	opt callstack 28
  1664  001652                     
  1665                           ;mcc_generated_files/eusart1.c: 175:     EUSART1_ErrorHandler = interruptHandler;
  1666  001652  C001  F03D         	movff	EUSART1_SetErrorHandler@interruptHandler,_EUSART1_ErrorHandler
  1667  001656  C002  F03E         	movff	EUSART1_SetErrorHandler@interruptHandler+1,_EUSART1_ErrorHandler+1
  1668  00165A  0012               	return		;funcret
  1669  00165C                     __end_of_EUSART1_SetErrorHandler:
  1670                           	opt callstack 0
  1671                           
  1672 ;; *************** function _Lcd_Start *****************
  1673 ;; Defined at:
  1674 ;;		line 75 in file "./LCD.h"
  1675 ;; Parameters:    Size  Location     Type
  1676 ;;		None
  1677 ;; Auto vars:     Size  Location     Type
  1678 ;;  i               2    0        int 
  1679 ;; Return value:  Size  Location     Type
  1680 ;;                  1    wreg      void 
  1681 ;; Registers used:
  1682 ;;		wreg, status,2, cstack
  1683 ;; Tracked objects:
  1684 ;;		On entry : 0/0
  1685 ;;		On exit  : 0/0
  1686 ;;		Unchanged: 0/0
  1687 ;; Data sizes:     COMRAM   BANK0   BANK1
  1688 ;;      Params:         0       0       0
  1689 ;;      Locals:         2       0       0
  1690 ;;      Temps:          1       0       0
  1691 ;;      Totals:         3       0       0
  1692 ;;Total ram usage:        3 bytes
  1693 ;; Hardware stack levels used:    1
  1694 ;; Hardware stack levels required when called:    2
  1695 ;; This function calls:
  1696 ;;		_Lcd_Cmd
  1697 ;;		_Lcd_SetBit
  1698 ;; This function is called by:
  1699 ;;		_main
  1700 ;; This function uses a non-reentrant model
  1701 ;;
  1702                           
  1703                           	psect	text14
  1704  001350                     __ptext14:
  1705                           	opt callstack 0
  1706  001350                     _Lcd_Start:
  1707                           	opt callstack 28
  1708  001350                     
  1709                           ;./LCD.h: 77:   Lcd_SetBit(0x00);
  1710  001350  0E00               	movlw	0
  1711  001352  ECD9  F009         	call	_Lcd_SetBit
  1712  001356                     
  1713                           ;./LCD.h: 79:   Lcd_Cmd(0x03);
  1714  001356  0E03               	movlw	3
  1715  001358  ECBB  F00A         	call	_Lcd_Cmd
  1716  00135C                     
  1717                           ;./LCD.h: 80:     _delay((unsigned long)((5)*(8000000/4000.0)));
  1718  00135C  0E0D               	movlw	13
  1719  00135E  6E04               	movwf	??_Lcd_Start^0,c
  1720  001360  0EFC               	movlw	252
  1721  001362                     u2237:
  1722  001362  2EE8               	decfsz	wreg,f,c
  1723  001364  D7FE               	bra	u2237
  1724  001366  2E04               	decfsz	??_Lcd_Start^0,f,c
  1725  001368  D7FC               	bra	u2237
  1726  00136A                     
  1727                           ;./LCD.h: 81:   Lcd_Cmd(0x03);
  1728  00136A  0E03               	movlw	3
  1729  00136C  ECBB  F00A         	call	_Lcd_Cmd
  1730                           
  1731                           ;./LCD.h: 82:     _delay((unsigned long)((11)*(8000000/4000.0)));
  1732  001370  0E1D               	movlw	29
  1733  001372  6E04               	movwf	??_Lcd_Start^0,c
  1734  001374  0E91               	movlw	145
  1735  001376                     u2247:
  1736  001376  2EE8               	decfsz	wreg,f,c
  1737  001378  D7FE               	bra	u2247
  1738  00137A  2E04               	decfsz	??_Lcd_Start^0,f,c
  1739  00137C  D7FC               	bra	u2247
  1740  00137E  F000               	nop	
  1741  001380                     
  1742                           ;./LCD.h: 83:   Lcd_Cmd(0x03);
  1743  001380  0E03               	movlw	3
  1744  001382  ECBB  F00A         	call	_Lcd_Cmd
  1745  001386                     
  1746                           ;./LCD.h: 84:   Lcd_Cmd(0x02);
  1747  001386  0E02               	movlw	2
  1748  001388  ECBB  F00A         	call	_Lcd_Cmd
  1749  00138C                     
  1750                           ;./LCD.h: 85:   Lcd_Cmd(0x02);
  1751  00138C  0E02               	movlw	2
  1752  00138E  ECBB  F00A         	call	_Lcd_Cmd
  1753  001392                     
  1754                           ;./LCD.h: 86:   Lcd_Cmd(0x08);
  1755  001392  0E08               	movlw	8
  1756  001394  ECBB  F00A         	call	_Lcd_Cmd
  1757  001398                     
  1758                           ;./LCD.h: 87:   Lcd_Cmd(0x00);
  1759  001398  0E00               	movlw	0
  1760  00139A  ECBB  F00A         	call	_Lcd_Cmd
  1761  00139E                     
  1762                           ;./LCD.h: 88:   Lcd_Cmd(0x0C);
  1763  00139E  0E0C               	movlw	12
  1764  0013A0  ECBB  F00A         	call	_Lcd_Cmd
  1765  0013A4                     
  1766                           ;./LCD.h: 89:   Lcd_Cmd(0x00);
  1767  0013A4  0E00               	movlw	0
  1768  0013A6  ECBB  F00A         	call	_Lcd_Cmd
  1769  0013AA                     
  1770                           ;./LCD.h: 90:   Lcd_Cmd(0x06);
  1771  0013AA  0E06               	movlw	6
  1772  0013AC  ECBB  F00A         	call	_Lcd_Cmd
  1773  0013B0  0012               	return		;funcret
  1774  0013B2                     __end_of_Lcd_Start:
  1775                           	opt callstack 0
  1776                           
  1777 ;; *************** function _Lcd_Set_Cursor *****************
  1778 ;; Defined at:
  1779 ;;		line 55 in file "./LCD.h"
  1780 ;; Parameters:    Size  Location     Type
  1781 ;;  a               1    wreg     unsigned char 
  1782 ;;  b               1    3[COMRAM] unsigned char 
  1783 ;; Auto vars:     Size  Location     Type
  1784 ;;  a               1    4[COMRAM] unsigned char 
  1785 ;;  temp            1    7[COMRAM] unsigned char 
  1786 ;;  y               1    6[COMRAM] unsigned char 
  1787 ;;  z               1    5[COMRAM] unsigned char 
  1788 ;; Return value:  Size  Location     Type
  1789 ;;                  1    wreg      void 
  1790 ;; Registers used:
  1791 ;;		wreg, status,2, status,0, cstack
  1792 ;; Tracked objects:
  1793 ;;		On entry : 0/0
  1794 ;;		On exit  : 0/0
  1795 ;;		Unchanged: 0/0
  1796 ;; Data sizes:     COMRAM   BANK0   BANK1
  1797 ;;      Params:         1       0       0
  1798 ;;      Locals:         4       0       0
  1799 ;;      Temps:          0       0       0
  1800 ;;      Totals:         5       0       0
  1801 ;;Total ram usage:        5 bytes
  1802 ;; Hardware stack levels used:    1
  1803 ;; Hardware stack levels required when called:    2
  1804 ;; This function calls:
  1805 ;;		_Lcd_Cmd
  1806 ;; This function is called by:
  1807 ;;		_main
  1808 ;; This function uses a non-reentrant model
  1809 ;;
  1810                           
  1811                           	psect	text15
  1812  0012EA                     __ptext15:
  1813                           	opt callstack 0
  1814  0012EA                     _Lcd_Set_Cursor:
  1815                           	opt callstack 28
  1816                           
  1817                           ;incstack = 0
  1818                           ;Lcd_Set_Cursor@a stored from wreg
  1819  0012EA  6E05               	movwf	Lcd_Set_Cursor@a^0,c
  1820  0012EC                     
  1821                           ;./LCD.h: 55: void Lcd_Set_Cursor(char a, char b);./LCD.h: 56: {;./LCD.h: 57:     char t
      +                          emp,z,y;;./LCD.h: 58:     if(a== 1)
  1822  0012EC  0405               	decf	Lcd_Set_Cursor@a^0,w,c
  1823  0012EE  A4D8               	btfss	status,2,c
  1824  0012F0  EF7C  F009         	goto	u2041
  1825  0012F4  EF7E  F009         	goto	u2040
  1826  0012F8                     u2041:
  1827  0012F8  EF8F  F009         	goto	l2658
  1828  0012FC                     u2040:
  1829  0012FC                     
  1830                           ;./LCD.h: 59:     {;./LCD.h: 60:       temp = 0x80 + b - 1;
  1831  0012FC  5004               	movf	Lcd_Set_Cursor@b^0,w,c
  1832  0012FE  0F7F               	addlw	127
  1833  001300  6E08               	movwf	Lcd_Set_Cursor@temp^0,c
  1834                           
  1835                           ;./LCD.h: 61:         z = temp>>4;
  1836  001302  3808               	swapf	Lcd_Set_Cursor@temp^0,w,c
  1837  001304  0B0F               	andlw	15
  1838  001306  6E06               	movwf	Lcd_Set_Cursor@z^0,c
  1839                           
  1840                           ;./LCD.h: 62:         y = temp & 0x0F;
  1841  001308  5008               	movf	Lcd_Set_Cursor@temp^0,w,c
  1842  00130A  0B0F               	andlw	15
  1843  00130C  6E07               	movwf	Lcd_Set_Cursor@y^0,c
  1844  00130E                     
  1845                           ;./LCD.h: 63:         Lcd_Cmd(z);
  1846  00130E  5006               	movf	Lcd_Set_Cursor@z^0,w,c
  1847  001310  ECBB  F00A         	call	_Lcd_Cmd
  1848  001314                     
  1849                           ;./LCD.h: 64:         Lcd_Cmd(y);
  1850  001314  5007               	movf	Lcd_Set_Cursor@y^0,w,c
  1851  001316  ECBB  F00A         	call	_Lcd_Cmd
  1852                           
  1853                           ;./LCD.h: 65:     }
  1854  00131A  EFA7  F009         	goto	l489
  1855  00131E                     l2658:
  1856  00131E  0E02               	movlw	2
  1857  001320  1805               	xorwf	Lcd_Set_Cursor@a^0,w,c
  1858  001322  A4D8               	btfss	status,2,c
  1859  001324  EF96  F009         	goto	u2051
  1860  001328  EF98  F009         	goto	u2050
  1861  00132C                     u2051:
  1862  00132C  EFA7  F009         	goto	l489
  1863  001330                     u2050:
  1864  001330                     
  1865                           ;./LCD.h: 67:     {;./LCD.h: 68:         temp = 0xC0 + b - 1;
  1866  001330  5004               	movf	Lcd_Set_Cursor@b^0,w,c
  1867  001332  0FBF               	addlw	191
  1868  001334  6E08               	movwf	Lcd_Set_Cursor@temp^0,c
  1869                           
  1870                           ;./LCD.h: 69:         z = temp>>4;
  1871  001336  3808               	swapf	Lcd_Set_Cursor@temp^0,w,c
  1872  001338  0B0F               	andlw	15
  1873  00133A  6E06               	movwf	Lcd_Set_Cursor@z^0,c
  1874                           
  1875                           ;./LCD.h: 70:         y = temp & 0x0F;
  1876  00133C  5008               	movf	Lcd_Set_Cursor@temp^0,w,c
  1877  00133E  0B0F               	andlw	15
  1878  001340  6E07               	movwf	Lcd_Set_Cursor@y^0,c
  1879  001342                     
  1880                           ;./LCD.h: 71:         Lcd_Cmd(z);
  1881  001342  5006               	movf	Lcd_Set_Cursor@z^0,w,c
  1882  001344  ECBB  F00A         	call	_Lcd_Cmd
  1883  001348                     
  1884                           ;./LCD.h: 72:         Lcd_Cmd(y);
  1885  001348  5007               	movf	Lcd_Set_Cursor@y^0,w,c
  1886  00134A  ECBB  F00A         	call	_Lcd_Cmd
  1887  00134E                     l489:
  1888  00134E  0012               	return		;funcret
  1889  001350                     __end_of_Lcd_Set_Cursor:
  1890                           	opt callstack 0
  1891                           
  1892 ;; *************** function _Lcd_Cmd *****************
  1893 ;; Defined at:
  1894 ;;		line 39 in file "./LCD.h"
  1895 ;; Parameters:    Size  Location     Type
  1896 ;;  a               1    wreg     unsigned char 
  1897 ;; Auto vars:     Size  Location     Type
  1898 ;;  a               1    2[COMRAM] unsigned char 
  1899 ;; Return value:  Size  Location     Type
  1900 ;;                  1    wreg      void 
  1901 ;; Registers used:
  1902 ;;		wreg, status,2, cstack
  1903 ;; Tracked objects:
  1904 ;;		On entry : 0/0
  1905 ;;		On exit  : 0/0
  1906 ;;		Unchanged: 0/0
  1907 ;; Data sizes:     COMRAM   BANK0   BANK1
  1908 ;;      Params:         0       0       0
  1909 ;;      Locals:         1       0       0
  1910 ;;      Temps:          1       0       0
  1911 ;;      Totals:         2       0       0
  1912 ;;Total ram usage:        2 bytes
  1913 ;; Hardware stack levels used:    1
  1914 ;; Hardware stack levels required when called:    1
  1915 ;; This function calls:
  1916 ;;		_Lcd_SetBit
  1917 ;; This function is called by:
  1918 ;;		_Lcd_Set_Cursor
  1919 ;;		_Lcd_Start
  1920 ;;		_Lcd_Clear
  1921 ;; This function uses a non-reentrant model
  1922 ;;
  1923                           
  1924                           	psect	text16
  1925  001576                     __ptext16:
  1926                           	opt callstack 0
  1927  001576                     _Lcd_Cmd:
  1928                           	opt callstack 28
  1929                           
  1930                           ;incstack = 0
  1931                           ;Lcd_Cmd@a stored from wreg
  1932  001576  6E03               	movwf	Lcd_Cmd@a^0,c
  1933  001578  968C               	bcf	140,3,c	;volatile
  1934  00157A                     
  1935                           ;./LCD.h: 42:     Lcd_SetBit(a);
  1936  00157A  5003               	movf	Lcd_Cmd@a^0,w,c
  1937  00157C  ECD9  F009         	call	_Lcd_SetBit
  1938  001580  888B               	bsf	139,4,c	;volatile
  1939  001582                     
  1940                           ;./LCD.h: 44:         _delay((unsigned long)((4)*(8000000/4000.0)));
  1941  001582  0E0B               	movlw	11
  1942  001584  6E02               	movwf	??_Lcd_Cmd^0,c
  1943  001586  0E62               	movlw	98
  1944  001588                     u2257:
  1945  001588  2EE8               	decfsz	wreg,f,c
  1946  00158A  D7FE               	bra	u2257
  1947  00158C  2E02               	decfsz	??_Lcd_Cmd^0,f,c
  1948  00158E  D7FC               	bra	u2257
  1949  001590  D000               	nop2	
  1950  001592  988B               	bcf	139,4,c	;volatile
  1951  001594  0012               	return		;funcret
  1952  001596                     __end_of_Lcd_Cmd:
  1953                           	opt callstack 0
  1954                           
  1955 ;; *************** function _Lcd_Print_String *****************
  1956 ;; Defined at:
  1957 ;;		line 109 in file "./LCD.h"
  1958 ;; Parameters:    Size  Location     Type
  1959 ;;  a               2    8[COMRAM] PTR unsigned char 
  1960 ;;		 -> STR_7(14), STR_6(16), 
  1961 ;; Auto vars:     Size  Location     Type
  1962 ;;  i               2   12[COMRAM] int 
  1963 ;; Return value:  Size  Location     Type
  1964 ;;                  1    wreg      void 
  1965 ;; Registers used:
  1966 ;;		wreg, status,2, status,0, tblptrl, tblptrh, tblptru, cstack
  1967 ;; Tracked objects:
  1968 ;;		On entry : 0/0
  1969 ;;		On exit  : 0/0
  1970 ;;		Unchanged: 0/0
  1971 ;; Data sizes:     COMRAM   BANK0   BANK1
  1972 ;;      Params:         2       0       0
  1973 ;;      Locals:         2       0       0
  1974 ;;      Temps:          2       0       0
  1975 ;;      Totals:         6       0       0
  1976 ;;Total ram usage:        6 bytes
  1977 ;; Hardware stack levels used:    1
  1978 ;; Hardware stack levels required when called:    2
  1979 ;; This function calls:
  1980 ;;		_Lcd_Print_Char
  1981 ;; This function is called by:
  1982 ;;		_main
  1983 ;; This function uses a non-reentrant model
  1984 ;;
  1985                           
  1986                           	psect	text17
  1987  00140E                     __ptext17:
  1988                           	opt callstack 0
  1989  00140E                     _Lcd_Print_String:
  1990                           	opt callstack 28
  1991  00140E                     
  1992                           ;./LCD.h: 109: void Lcd_Print_String(char *a);./LCD.h: 110: {;./LCD.h: 111:     int i;;.
      +                          /LCD.h: 112:     for(i=0;a[i]!='\0';i++)
  1993  00140E  0E00               	movlw	0
  1994  001410  6E0E               	movwf	(Lcd_Print_String@i+1)^0,c
  1995  001412  0E00               	movlw	0
  1996  001414  6E0D               	movwf	Lcd_Print_String@i^0,c
  1997  001416  EF1D  F00A         	goto	l2672
  1998  00141A                     l2668:
  1999                           
  2000                           ;./LCD.h: 113:        Lcd_Print_Char(a[i]);
  2001  00141A  500D               	movf	Lcd_Print_String@i^0,w,c
  2002  00141C  2409               	addwf	Lcd_Print_String@a^0,w,c
  2003  00141E  6E0B               	movwf	??_Lcd_Print_String^0,c
  2004  001420  500E               	movf	(Lcd_Print_String@i+1)^0,w,c
  2005  001422  200A               	addwfc	(Lcd_Print_String@a+1)^0,w,c
  2006  001424  6E0C               	movwf	(??_Lcd_Print_String+1)^0,c
  2007  001426  C00B  FFF6         	movff	??_Lcd_Print_String,tblptrl
  2008  00142A  C00C  FFF7         	movff	??_Lcd_Print_String+1,tblptrh
  2009  00142E                     	if	0	;tblptru may be non-zero
  2010  00142E                     	endif
  2011  00142E                     	if	0	;tblptru may be non-zero
  2012  00142E                     	endif
  2013  00142E  0008               	tblrd		*
  2014  001430  50F5               	movf	tablat,w,c
  2015  001432  ECFB  F008         	call	_Lcd_Print_Char
  2016  001436  4A0D               	infsnz	Lcd_Print_String@i^0,f,c
  2017  001438  2A0E               	incf	(Lcd_Print_String@i+1)^0,f,c
  2018  00143A                     l2672:
  2019  00143A  500D               	movf	Lcd_Print_String@i^0,w,c
  2020  00143C  2409               	addwf	Lcd_Print_String@a^0,w,c
  2021  00143E  6E0B               	movwf	??_Lcd_Print_String^0,c
  2022  001440  500E               	movf	(Lcd_Print_String@i+1)^0,w,c
  2023  001442  200A               	addwfc	(Lcd_Print_String@a+1)^0,w,c
  2024  001444  6E0C               	movwf	(??_Lcd_Print_String+1)^0,c
  2025  001446  C00B  FFF6         	movff	??_Lcd_Print_String,tblptrl
  2026  00144A  C00C  FFF7         	movff	??_Lcd_Print_String+1,tblptrh
  2027  00144E                     	if	0	;tblptru may be non-zero
  2028  00144E                     	endif
  2029  00144E                     	if	0	;tblptru may be non-zero
  2030  00144E                     	endif
  2031  00144E  0008               	tblrd		*
  2032  001450  50F5               	movf	tablat,w,c
  2033  001452  0900               	iorlw	0
  2034  001454  A4D8               	btfss	status,2,c
  2035  001456  EF2F  F00A         	goto	u2061
  2036  00145A  EF31  F00A         	goto	u2060
  2037  00145E                     u2061:
  2038  00145E  EF0D  F00A         	goto	l2668
  2039  001462                     u2060:
  2040  001462  0012               	return		;funcret
  2041  001464                     __end_of_Lcd_Print_String:
  2042                           	opt callstack 0
  2043                           
  2044 ;; *************** function _Lcd_Print_Char *****************
  2045 ;; Defined at:
  2046 ;;		line 93 in file "./LCD.h"
  2047 ;; Parameters:    Size  Location     Type
  2048 ;;  data            1    wreg     unsigned char 
  2049 ;; Auto vars:     Size  Location     Type
  2050 ;;  data            1    7[COMRAM] unsigned char 
  2051 ;;  i               2    5[COMRAM] int 
  2052 ;;  i               2    3[COMRAM] int 
  2053 ;;  Upper_Nibble    1    2[COMRAM] unsigned char 
  2054 ;;  Lower_Nibble    1    1[COMRAM] unsigned char 
  2055 ;; Return value:  Size  Location     Type
  2056 ;;                  1    wreg      void 
  2057 ;; Registers used:
  2058 ;;		wreg, status,2, status,0, cstack
  2059 ;; Tracked objects:
  2060 ;;		On entry : 0/0
  2061 ;;		On exit  : 0/0
  2062 ;;		Unchanged: 0/0
  2063 ;; Data sizes:     COMRAM   BANK0   BANK1
  2064 ;;      Params:         0       0       0
  2065 ;;      Locals:         7       0       0
  2066 ;;      Temps:          0       0       0
  2067 ;;      Totals:         7       0       0
  2068 ;;Total ram usage:        7 bytes
  2069 ;; Hardware stack levels used:    1
  2070 ;; Hardware stack levels required when called:    1
  2071 ;; This function calls:
  2072 ;;		_Lcd_SetBit
  2073 ;; This function is called by:
  2074 ;;		_Lcd_Print_String
  2075 ;; This function uses a non-reentrant model
  2076 ;;
  2077                           
  2078                           	psect	text18
  2079  0011F6                     __ptext18:
  2080                           	opt callstack 0
  2081  0011F6                     _Lcd_Print_Char:
  2082                           	opt callstack 28
  2083                           
  2084                           ;incstack = 0
  2085                           ;Lcd_Print_Char@data stored from wreg
  2086  0011F6  6E08               	movwf	Lcd_Print_Char@data^0,c
  2087  0011F8                     
  2088                           ;./LCD.h: 93: void Lcd_Print_Char(char data);./LCD.h: 94: {;./LCD.h: 95:    char Lower_N
      +                          ibble,Upper_Nibble;;./LCD.h: 96:    Lower_Nibble = data&0x0F;
  2089  0011F8  5008               	movf	Lcd_Print_Char@data^0,w,c
  2090  0011FA  0B0F               	andlw	15
  2091  0011FC  6E02               	movwf	Lcd_Print_Char@Lower_Nibble^0,c
  2092                           
  2093                           ;./LCD.h: 97:    Upper_Nibble = data&0xF0;
  2094  0011FE  5008               	movf	Lcd_Print_Char@data^0,w,c
  2095  001200  0BF0               	andlw	240
  2096  001202  6E03               	movwf	Lcd_Print_Char@Upper_Nibble^0,c
  2097  001204  868C               	bsf	140,3,c	;volatile
  2098  001206                     
  2099                           ;./LCD.h: 99:    Lcd_SetBit(Upper_Nibble>>4);
  2100  001206  3803               	swapf	Lcd_Print_Char@Upper_Nibble^0,w,c
  2101  001208  0B0F               	andlw	15
  2102  00120A  ECD9  F009         	call	_Lcd_SetBit
  2103  00120E  888B               	bsf	139,4,c	;volatile
  2104  001210                     
  2105                           ;./LCD.h: 101:    for(int i=2130483; i<=0; i--) __nop();
  2106  001210  0E82               	movlw	130
  2107  001212  6E05               	movwf	(Lcd_Print_Char@i+1)^0,c
  2108  001214  0E33               	movlw	51
  2109  001216  6E04               	movwf	Lcd_Print_Char@i^0,c
  2110  001218                     l501:
  2111  001218  F000               	nop	
  2112  00121A  0604               	decf	Lcd_Print_Char@i^0,f,c
  2113  00121C  A0D8               	btfss	status,0,c
  2114  00121E  0605               	decf	(Lcd_Print_Char@i+1)^0,f,c
  2115  001220  BE05               	btfsc	(Lcd_Print_Char@i+1)^0,7,c
  2116  001222  EF1B  F009         	goto	u81
  2117  001226  5005               	movf	(Lcd_Print_Char@i+1)^0,w,c
  2118  001228  E108               	bnz	u80
  2119  00122A  0404               	decf	Lcd_Print_Char@i^0,w,c
  2120  00122C  A0D8               	btfss	status,0,c
  2121  00122E  EF1B  F009         	goto	u81
  2122  001232  EF1D  F009         	goto	u80
  2123  001236                     u81:
  2124  001236  EF0C  F009         	goto	l501
  2125  00123A                     u80:
  2126  00123A  988B               	bcf	139,4,c	;volatile
  2127  00123C                     
  2128                           ;./LCD.h: 103:    Lcd_SetBit(Lower_Nibble);
  2129  00123C  5002               	movf	Lcd_Print_Char@Lower_Nibble^0,w,c
  2130  00123E  ECD9  F009         	call	_Lcd_SetBit
  2131  001242  888B               	bsf	139,4,c	;volatile
  2132  001244                     
  2133                           ;./LCD.h: 105:    for(int i=2130483; i<=0; i--) __nop();
  2134  001244  0E82               	movlw	130
  2135  001246  6E07               	movwf	(Lcd_Print_Char@i_1375+1)^0,c
  2136  001248  0E33               	movlw	51
  2137  00124A  6E06               	movwf	Lcd_Print_Char@i_1375^0,c
  2138  00124C                     l507:
  2139  00124C  F000               	nop	
  2140  00124E  0606               	decf	Lcd_Print_Char@i_1375^0,f,c
  2141  001250  A0D8               	btfss	status,0,c
  2142  001252  0607               	decf	(Lcd_Print_Char@i_1375+1)^0,f,c
  2143  001254  BE07               	btfsc	(Lcd_Print_Char@i_1375+1)^0,7,c
  2144  001256  EF35  F009         	goto	u91
  2145  00125A  5007               	movf	(Lcd_Print_Char@i_1375+1)^0,w,c
  2146  00125C  E108               	bnz	u90
  2147  00125E  0406               	decf	Lcd_Print_Char@i_1375^0,w,c
  2148  001260  A0D8               	btfss	status,0,c
  2149  001262  EF35  F009         	goto	u91
  2150  001266  EF37  F009         	goto	u90
  2151  00126A                     u91:
  2152  00126A  EF26  F009         	goto	l507
  2153  00126E                     u90:
  2154  00126E  988B               	bcf	139,4,c	;volatile
  2155  001270  0012               	return		;funcret
  2156  001272                     __end_of_Lcd_Print_Char:
  2157                           	opt callstack 0
  2158                           
  2159 ;; *************** function _Lcd_SetBit *****************
  2160 ;; Defined at:
  2161 ;;		line 16 in file "./LCD.h"
  2162 ;; Parameters:    Size  Location     Type
  2163 ;;  data_bit        1    wreg     unsigned char 
  2164 ;; Auto vars:     Size  Location     Type
  2165 ;;  data_bit        1    0[COMRAM] unsigned char 
  2166 ;; Return value:  Size  Location     Type
  2167 ;;                  1    wreg      void 
  2168 ;; Registers used:
  2169 ;;		wreg
  2170 ;; Tracked objects:
  2171 ;;		On entry : 0/0
  2172 ;;		On exit  : 0/0
  2173 ;;		Unchanged: 0/0
  2174 ;; Data sizes:     COMRAM   BANK0   BANK1
  2175 ;;      Params:         0       0       0
  2176 ;;      Locals:         1       0       0
  2177 ;;      Temps:          0       0       0
  2178 ;;      Totals:         1       0       0
  2179 ;;Total ram usage:        1 bytes
  2180 ;; Hardware stack levels used:    1
  2181 ;; This function calls:
  2182 ;;		Nothing
  2183 ;; This function is called by:
  2184 ;;		_Lcd_Cmd
  2185 ;;		_Lcd_Start
  2186 ;;		_Lcd_Print_Char
  2187 ;; This function uses a non-reentrant model
  2188 ;;
  2189                           
  2190                           	psect	text19
  2191  0013B2                     __ptext19:
  2192                           	opt callstack 0
  2193  0013B2                     _Lcd_SetBit:
  2194                           	opt callstack 29
  2195                           
  2196                           ;incstack = 0
  2197                           ;Lcd_SetBit@data_bit stored from wreg
  2198  0013B2  6E01               	movwf	Lcd_SetBit@data_bit^0,c
  2199  0013B4                     
  2200                           ;./LCD.h: 16: void Lcd_SetBit(char data_bit);./LCD.h: 17: {;./LCD.h: 18:     if(data_bit
      +                          & 1)
  2201  0013B4  A001               	btfss	Lcd_SetBit@data_bit^0,0,c
  2202  0013B6  EFDF  F009         	goto	u11
  2203  0013BA  EFE1  F009         	goto	u10
  2204  0013BE                     u11:
  2205  0013BE  EFE4  F009         	goto	l451
  2206  0013C2                     u10:
  2207  0013C2  8E89               	bsf	137,7,c	;volatile
  2208  0013C4  EFE5  F009         	goto	l1246
  2209  0013C8                     l451:
  2210  0013C8  9E89               	bcf	137,7,c	;volatile
  2211  0013CA                     l1246:
  2212                           
  2213                           ;./LCD.h: 23:     if(data_bit& 2)
  2214  0013CA  A201               	btfss	Lcd_SetBit@data_bit^0,1,c
  2215  0013CC  EFEA  F009         	goto	u21
  2216  0013D0  EFEC  F009         	goto	u20
  2217  0013D4                     u21:
  2218  0013D4  EFEF  F009         	goto	l457
  2219  0013D8                     u20:
  2220  0013D8  8C89               	bsf	137,6,c	;volatile
  2221  0013DA  EFF0  F009         	goto	l1248
  2222  0013DE                     l457:
  2223  0013DE  9C89               	bcf	137,6,c	;volatile
  2224  0013E0                     l1248:
  2225                           
  2226                           ;./LCD.h: 28:     if(data_bit& 4)
  2227  0013E0  A401               	btfss	Lcd_SetBit@data_bit^0,2,c
  2228  0013E2  EFF5  F009         	goto	u31
  2229  0013E6  EFF7  F009         	goto	u30
  2230  0013EA                     u31:
  2231  0013EA  EFFA  F009         	goto	l463
  2232  0013EE                     u30:
  2233  0013EE  808B               	bsf	139,0,c	;volatile
  2234  0013F0  EFFB  F009         	goto	l1250
  2235  0013F4                     l463:
  2236  0013F4  908B               	bcf	139,0,c	;volatile
  2237  0013F6                     l1250:
  2238                           
  2239                           ;./LCD.h: 33:     if(data_bit& 8)
  2240  0013F6  A601               	btfss	Lcd_SetBit@data_bit^0,3,c
  2241  0013F8  EF00  F00A         	goto	u41
  2242  0013FC  EF02  F00A         	goto	u40
  2243  001400                     u41:
  2244  001400  EF05  F00A         	goto	l469
  2245  001404                     u40:
  2246  001404  828B               	bsf	139,1,c	;volatile
  2247  001406  EF06  F00A         	goto	l471
  2248  00140A                     l469:
  2249  00140A  928B               	bcf	139,1,c	;volatile
  2250  00140C                     l471:
  2251  00140C  0012               	return		;funcret
  2252  00140E                     __end_of_Lcd_SetBit:
  2253                           	opt callstack 0
  2254                           
  2255 ;; *************** function _Get_Distance_Rear *****************
  2256 ;; Defined at:
  2257 ;;		line 57 in file "./Hc_Sr05.h"
  2258 ;; Parameters:    Size  Location     Type
  2259 ;;		None
  2260 ;; Auto vars:     Size  Location     Type
  2261 ;;		None
  2262 ;; Return value:  Size  Location     Type
  2263 ;;                  4   25[COMRAM] float 
  2264 ;; Registers used:
  2265 ;;		wreg, status,2, status,0, cstack
  2266 ;; Tracked objects:
  2267 ;;		On entry : 0/0
  2268 ;;		On exit  : 0/0
  2269 ;;		Unchanged: 0/0
  2270 ;; Data sizes:     COMRAM   BANK0   BANK1
  2271 ;;      Params:         4       0       0
  2272 ;;      Locals:         0       0       0
  2273 ;;      Temps:          0       0       0
  2274 ;;      Totals:         4       0       0
  2275 ;;Total ram usage:        4 bytes
  2276 ;; Hardware stack levels used:    1
  2277 ;; Hardware stack levels required when called:    1
  2278 ;; This function calls:
  2279 ;;		_TMR1_ReadTimer
  2280 ;;		_TMR1_StartTimer
  2281 ;;		_TMR1_StopTimer
  2282 ;;		_TMR1_WriteTimer
  2283 ;;		___fladd
  2284 ;;		___fldiv
  2285 ;;		___xxtofl
  2286 ;; This function is called by:
  2287 ;;		_main
  2288 ;; This function uses a non-reentrant model
  2289 ;;
  2290                           
  2291                           	psect	text20
  2292  000F1A                     __ptext20:
  2293                           	opt callstack 0
  2294  000F1A                     _Get_Distance_Rear:
  2295                           	opt callstack 29
  2296  000F1A                     
  2297                           ;./Hc_Sr05.h: 58:         Distance=0;
  2298  000F1A  0E00               	movlw	0
  2299  000F1C  6E43               	movwf	_Distance^0,c
  2300  000F1E  0E00               	movlw	0
  2301  000F20  6E44               	movwf	(_Distance+1)^0,c
  2302  000F22  0E00               	movlw	0
  2303  000F24  6E45               	movwf	(_Distance+2)^0,c
  2304  000F26  0E00               	movlw	0
  2305  000F28  6E46               	movwf	(_Distance+3)^0,c
  2306                           
  2307                           ;./Hc_Sr05.h: 59:         Time=0;
  2308  000F2A  0E00               	movlw	0
  2309  000F2C  6E47               	movwf	_Time^0,c
  2310  000F2E  0E00               	movlw	0
  2311  000F30  6E48               	movwf	(_Time+1)^0,c
  2312  000F32  0E00               	movlw	0
  2313  000F34  6E49               	movwf	(_Time+2)^0,c
  2314  000F36  0E00               	movlw	0
  2315  000F38  6E4A               	movwf	(_Time+3)^0,c
  2316  000F3A  828A               	bsf	138,1,c	;volatile
  2317  000F3C                     
  2318                           ;./Hc_Sr05.h: 61:        _delay((unsigned long)((10)*(8000000/4000000.0)));
  2319  000F3C  0E06               	movlw	6
  2320  000F3E                     u2267:
  2321  000F3E  2EE8               	decfsz	wreg,f,c
  2322  000F40  D7FE               	bra	u2267
  2323  000F42  D000               	nop2	
  2324  000F44  928A               	bcf	138,1,c	;volatile
  2325  000F46                     l425:
  2326                           
  2327                           ;./Hc_Sr05.h: 66:        while(PORTBbits.RB0==0)
  2328  000F46  A081               	btfss	129,0,c	;volatile
  2329  000F48  EFA8  F007         	goto	u2021
  2330  000F4C  EFAA  F007         	goto	u2020
  2331  000F50                     u2021:
  2332  000F50  EFA3  F007         	goto	l425
  2333  000F54                     u2020:
  2334  000F54                     
  2335                           ;./Hc_Sr05.h: 69:        TMR1_StartTimer();
  2336  000F54  EC59  F00B         	call	_TMR1_StartTimer	;wreg free
  2337  000F58                     l428:
  2338                           
  2339                           ;./Hc_Sr05.h: 70:        while(PORTBbits.RB0==1)
  2340  000F58  B081               	btfsc	129,0,c	;volatile
  2341  000F5A  EFB1  F007         	goto	u2031
  2342  000F5E  EFB3  F007         	goto	u2030
  2343  000F62                     u2031:
  2344  000F62  EFAC  F007         	goto	l428
  2345  000F66                     u2030:
  2346  000F66                     
  2347                           ;./Hc_Sr05.h: 72:        Time = TMR1_ReadTimer();
  2348  000F66  ECCB  F00A         	call	_TMR1_ReadTimer	;wreg free
  2349  000F6A  C001  F009         	movff	?_TMR1_ReadTimer,___xxtofl@val
  2350  000F6E  C002  F00A         	movff	?_TMR1_ReadTimer+1,___xxtofl@val+1
  2351  000F72  6A0B               	clrf	(___xxtofl@val+2)^0,c
  2352  000F74  6A0C               	clrf	(___xxtofl@val+3)^0,c
  2353  000F76  0E00               	movlw	0
  2354  000F78  EC31  F006         	call	___xxtofl
  2355  000F7C  C009  F047         	movff	?___xxtofl,_Time
  2356  000F80  C00A  F048         	movff	?___xxtofl+1,_Time+1
  2357  000F84  C00B  F049         	movff	?___xxtofl+2,_Time+2
  2358  000F88  C00C  F04A         	movff	?___xxtofl+3,_Time+3
  2359  000F8C                     
  2360                           ;./Hc_Sr05.h: 73:        TMR1_StopTimer();
  2361  000F8C  EC57  F00B         	call	_TMR1_StopTimer	;wreg free
  2362  000F90                     
  2363                           ;./Hc_Sr05.h: 75:        TMR1_WriteTimer(0x00);
  2364  000F90  0E00               	movlw	0
  2365  000F92  6E02               	movwf	(TMR1_WriteTimer@timerVal+1)^0,c
  2366  000F94  0E00               	movlw	0
  2367  000F96  6E01               	movwf	TMR1_WriteTimer@timerVal^0,c
  2368  000F98  EC93  F00A         	call	_TMR1_WriteTimer	;wreg free
  2369  000F9C                     
  2370                           ;./Hc_Sr05.h: 76:        Distance = Time/58.82;
  2371  000F9C  C047  F001         	movff	_Time,___fldiv@b
  2372  000FA0  C048  F002         	movff	_Time+1,___fldiv@b+1
  2373  000FA4  C049  F003         	movff	_Time+2,___fldiv@b+2
  2374  000FA8  C04A  F004         	movff	_Time+3,___fldiv@b+3
  2375  000FAC  0EAE               	movlw	174
  2376  000FAE  6E05               	movwf	___fldiv@a^0,c
  2377  000FB0  0E47               	movlw	71
  2378  000FB2  6E06               	movwf	(___fldiv@a+1)^0,c
  2379  000FB4  0E6B               	movlw	107
  2380  000FB6  6E07               	movwf	(___fldiv@a+2)^0,c
  2381  000FB8  0E42               	movlw	66
  2382  000FBA  6E08               	movwf	(___fldiv@a+3)^0,c
  2383  000FBC  EC7F  F003         	call	___fldiv	;wreg free
  2384  000FC0  C001  F043         	movff	?___fldiv,_Distance
  2385  000FC4  C002  F044         	movff	?___fldiv+1,_Distance+1
  2386  000FC8  C003  F045         	movff	?___fldiv+2,_Distance+2
  2387  000FCC  C004  F046         	movff	?___fldiv+3,_Distance+3
  2388  000FD0                     
  2389                           ;./Hc_Sr05.h: 77:        Distance += 1;
  2390  000FD0  C043  F001         	movff	_Distance,___fladd@b
  2391  000FD4  C044  F002         	movff	_Distance+1,___fladd@b+1
  2392  000FD8  C045  F003         	movff	_Distance+2,___fladd@b+2
  2393  000FDC  C046  F004         	movff	_Distance+3,___fladd@b+3
  2394  000FE0  0E00               	movlw	0
  2395  000FE2  6E05               	movwf	___fladd@a^0,c
  2396  000FE4  0E00               	movlw	0
  2397  000FE6  6E06               	movwf	(___fladd@a+1)^0,c
  2398  000FE8  0E80               	movlw	128
  2399  000FEA  6E07               	movwf	(___fladd@a+2)^0,c
  2400  000FEC  0E3F               	movlw	63
  2401  000FEE  6E08               	movwf	(___fladd@a+3)^0,c
  2402  000FF0  EC1F  F001         	call	___fladd	;wreg free
  2403  000FF4  C001  F043         	movff	?___fladd,_Distance
  2404  000FF8  C002  F044         	movff	?___fladd+1,_Distance+1
  2405  000FFC  C003  F045         	movff	?___fladd+2,_Distance+2
  2406  001000  C004  F046         	movff	?___fladd+3,_Distance+3
  2407  001004                     
  2408                           ;./Hc_Sr05.h: 80:        return Distance;
  2409  001004  C043  F01A         	movff	_Distance,?_Get_Distance_Rear
  2410  001008  C044  F01B         	movff	_Distance+1,?_Get_Distance_Rear+1
  2411  00100C  C045  F01C         	movff	_Distance+2,?_Get_Distance_Rear+2
  2412  001010  C046  F01D         	movff	_Distance+3,?_Get_Distance_Rear+3
  2413  001014  0012               	return		;funcret
  2414  001016                     __end_of_Get_Distance_Rear:
  2415                           	opt callstack 0
  2416                           
  2417 ;; *************** function _Get_Distance_Front *****************
  2418 ;; Defined at:
  2419 ;;		line 25 in file "./Hc_Sr05.h"
  2420 ;; Parameters:    Size  Location     Type
  2421 ;;		None
  2422 ;; Auto vars:     Size  Location     Type
  2423 ;;		None
  2424 ;; Return value:  Size  Location     Type
  2425 ;;                  4   25[COMRAM] float 
  2426 ;; Registers used:
  2427 ;;		wreg, status,2, status,0, cstack
  2428 ;; Tracked objects:
  2429 ;;		On entry : 0/0
  2430 ;;		On exit  : 0/0
  2431 ;;		Unchanged: 0/0
  2432 ;; Data sizes:     COMRAM   BANK0   BANK1
  2433 ;;      Params:         4       0       0
  2434 ;;      Locals:         0       0       0
  2435 ;;      Temps:          0       0       0
  2436 ;;      Totals:         4       0       0
  2437 ;;Total ram usage:        4 bytes
  2438 ;; Hardware stack levels used:    1
  2439 ;; Hardware stack levels required when called:    1
  2440 ;; This function calls:
  2441 ;;		_TMR1_ReadTimer
  2442 ;;		_TMR1_StartTimer
  2443 ;;		_TMR1_StopTimer
  2444 ;;		_TMR1_WriteTimer
  2445 ;;		___fladd
  2446 ;;		___fldiv
  2447 ;;		___xxtofl
  2448 ;; This function is called by:
  2449 ;;		_main
  2450 ;; This function uses a non-reentrant model
  2451 ;;
  2452                           
  2453                           	psect	text21
  2454  001016                     __ptext21:
  2455                           	opt callstack 0
  2456  001016                     _Get_Distance_Front:
  2457                           	opt callstack 29
  2458  001016                     
  2459                           ;./Hc_Sr05.h: 26:         Distance=0;
  2460  001016  0E00               	movlw	0
  2461  001018  6E43               	movwf	_Distance^0,c
  2462  00101A  0E00               	movlw	0
  2463  00101C  6E44               	movwf	(_Distance+1)^0,c
  2464  00101E  0E00               	movlw	0
  2465  001020  6E45               	movwf	(_Distance+2)^0,c
  2466  001022  0E00               	movlw	0
  2467  001024  6E46               	movwf	(_Distance+3)^0,c
  2468                           
  2469                           ;./Hc_Sr05.h: 27:         Time=0;
  2470  001026  0E00               	movlw	0
  2471  001028  6E47               	movwf	_Time^0,c
  2472  00102A  0E00               	movlw	0
  2473  00102C  6E48               	movwf	(_Time+1)^0,c
  2474  00102E  0E00               	movlw	0
  2475  001030  6E49               	movwf	(_Time+2)^0,c
  2476  001032  0E00               	movlw	0
  2477  001034  6E4A               	movwf	(_Time+3)^0,c
  2478  001036  808C               	bsf	140,0,c	;volatile
  2479  001038                     
  2480                           ;./Hc_Sr05.h: 29:        _delay((unsigned long)((10)*(8000000/4000000.0)));
  2481  001038  0E06               	movlw	6
  2482  00103A                     u2277:
  2483  00103A  2EE8               	decfsz	wreg,f,c
  2484  00103C  D7FE               	bra	u2277
  2485  00103E  D000               	nop2	
  2486  001040  908C               	bcf	140,0,c	;volatile
  2487  001042                     l412:
  2488                           
  2489                           ;./Hc_Sr05.h: 34:        while(PORTDbits.RD1==0)
  2490  001042  A283               	btfss	131,1,c	;volatile
  2491  001044  EF26  F008         	goto	u2001
  2492  001048  EF28  F008         	goto	u2000
  2493  00104C                     u2001:
  2494  00104C  EF21  F008         	goto	l412
  2495  001050                     u2000:
  2496  001050                     
  2497                           ;./Hc_Sr05.h: 37:        TMR1_StartTimer();
  2498  001050  EC59  F00B         	call	_TMR1_StartTimer	;wreg free
  2499  001054                     l415:
  2500                           
  2501                           ;./Hc_Sr05.h: 38:        while(PORTDbits.RD1==1)
  2502  001054  B283               	btfsc	131,1,c	;volatile
  2503  001056  EF2F  F008         	goto	u2011
  2504  00105A  EF31  F008         	goto	u2010
  2505  00105E                     u2011:
  2506  00105E  EF2A  F008         	goto	l415
  2507  001062                     u2010:
  2508  001062                     
  2509                           ;./Hc_Sr05.h: 40:        Time = TMR1_ReadTimer();
  2510  001062  ECCB  F00A         	call	_TMR1_ReadTimer	;wreg free
  2511  001066  C001  F009         	movff	?_TMR1_ReadTimer,___xxtofl@val
  2512  00106A  C002  F00A         	movff	?_TMR1_ReadTimer+1,___xxtofl@val+1
  2513  00106E  6A0B               	clrf	(___xxtofl@val+2)^0,c
  2514  001070  6A0C               	clrf	(___xxtofl@val+3)^0,c
  2515  001072  0E00               	movlw	0
  2516  001074  EC31  F006         	call	___xxtofl
  2517  001078  C009  F047         	movff	?___xxtofl,_Time
  2518  00107C  C00A  F048         	movff	?___xxtofl+1,_Time+1
  2519  001080  C00B  F049         	movff	?___xxtofl+2,_Time+2
  2520  001084  C00C  F04A         	movff	?___xxtofl+3,_Time+3
  2521  001088                     
  2522                           ;./Hc_Sr05.h: 41:        TMR1_StopTimer();
  2523  001088  EC57  F00B         	call	_TMR1_StopTimer	;wreg free
  2524  00108C                     
  2525                           ;./Hc_Sr05.h: 43:        TMR1_WriteTimer(0x00);
  2526  00108C  0E00               	movlw	0
  2527  00108E  6E02               	movwf	(TMR1_WriteTimer@timerVal+1)^0,c
  2528  001090  0E00               	movlw	0
  2529  001092  6E01               	movwf	TMR1_WriteTimer@timerVal^0,c
  2530  001094  EC93  F00A         	call	_TMR1_WriteTimer	;wreg free
  2531  001098                     
  2532                           ;./Hc_Sr05.h: 44:        Distance = Time/58.82;
  2533  001098  C047  F001         	movff	_Time,___fldiv@b
  2534  00109C  C048  F002         	movff	_Time+1,___fldiv@b+1
  2535  0010A0  C049  F003         	movff	_Time+2,___fldiv@b+2
  2536  0010A4  C04A  F004         	movff	_Time+3,___fldiv@b+3
  2537  0010A8  0EAE               	movlw	174
  2538  0010AA  6E05               	movwf	___fldiv@a^0,c
  2539  0010AC  0E47               	movlw	71
  2540  0010AE  6E06               	movwf	(___fldiv@a+1)^0,c
  2541  0010B0  0E6B               	movlw	107
  2542  0010B2  6E07               	movwf	(___fldiv@a+2)^0,c
  2543  0010B4  0E42               	movlw	66
  2544  0010B6  6E08               	movwf	(___fldiv@a+3)^0,c
  2545  0010B8  EC7F  F003         	call	___fldiv	;wreg free
  2546  0010BC  C001  F043         	movff	?___fldiv,_Distance
  2547  0010C0  C002  F044         	movff	?___fldiv+1,_Distance+1
  2548  0010C4  C003  F045         	movff	?___fldiv+2,_Distance+2
  2549  0010C8  C004  F046         	movff	?___fldiv+3,_Distance+3
  2550  0010CC                     
  2551                           ;./Hc_Sr05.h: 45:        Distance += 1;
  2552  0010CC  C043  F001         	movff	_Distance,___fladd@b
  2553  0010D0  C044  F002         	movff	_Distance+1,___fladd@b+1
  2554  0010D4  C045  F003         	movff	_Distance+2,___fladd@b+2
  2555  0010D8  C046  F004         	movff	_Distance+3,___fladd@b+3
  2556  0010DC  0E00               	movlw	0
  2557  0010DE  6E05               	movwf	___fladd@a^0,c
  2558  0010E0  0E00               	movlw	0
  2559  0010E2  6E06               	movwf	(___fladd@a+1)^0,c
  2560  0010E4  0E80               	movlw	128
  2561  0010E6  6E07               	movwf	(___fladd@a+2)^0,c
  2562  0010E8  0E3F               	movlw	63
  2563  0010EA  6E08               	movwf	(___fladd@a+3)^0,c
  2564  0010EC  EC1F  F001         	call	___fladd	;wreg free
  2565  0010F0  C001  F043         	movff	?___fladd,_Distance
  2566  0010F4  C002  F044         	movff	?___fladd+1,_Distance+1
  2567  0010F8  C003  F045         	movff	?___fladd+2,_Distance+2
  2568  0010FC  C004  F046         	movff	?___fladd+3,_Distance+3
  2569  001100                     
  2570                           ;./Hc_Sr05.h: 48:        return Distance;
  2571  001100  C043  F01A         	movff	_Distance,?_Get_Distance_Front
  2572  001104  C044  F01B         	movff	_Distance+1,?_Get_Distance_Front+1
  2573  001108  C045  F01C         	movff	_Distance+2,?_Get_Distance_Front+2
  2574  00110C  C046  F01D         	movff	_Distance+3,?_Get_Distance_Front+3
  2575  001110  0012               	return		;funcret
  2576  001112                     __end_of_Get_Distance_Front:
  2577                           	opt callstack 0
  2578                           
  2579 ;; *************** function ___xxtofl *****************
  2580 ;; Defined at:
  2581 ;;		line 10 in file "C:\Program Files (x86)\Microchip\xc8\v2.10\pic\sources\c99\common\xxtofl.c"
  2582 ;; Parameters:    Size  Location     Type
  2583 ;;  sign            1    wreg     unsigned char 
  2584 ;;  val             4    8[COMRAM] long 
  2585 ;; Auto vars:     Size  Location     Type
  2586 ;;  sign            1   16[COMRAM] unsigned char 
  2587 ;;  arg             4   18[COMRAM] unsigned long 
  2588 ;;  exp             1   17[COMRAM] unsigned char 
  2589 ;; Return value:  Size  Location     Type
  2590 ;;                  4    8[COMRAM] unsigned char 
  2591 ;; Registers used:
  2592 ;;		wreg, status,2, status,0
  2593 ;; Tracked objects:
  2594 ;;		On entry : 0/0
  2595 ;;		On exit  : 0/0
  2596 ;;		Unchanged: 0/0
  2597 ;; Data sizes:     COMRAM   BANK0   BANK1
  2598 ;;      Params:         4       0       0
  2599 ;;      Locals:         6       0       0
  2600 ;;      Temps:          4       0       0
  2601 ;;      Totals:        14       0       0
  2602 ;;Total ram usage:       14 bytes
  2603 ;; Hardware stack levels used:    1
  2604 ;; This function calls:
  2605 ;;		Nothing
  2606 ;; This function is called by:
  2607 ;;		_Get_Distance_Front
  2608 ;;		_Get_Distance_Rear
  2609 ;; This function uses a non-reentrant model
  2610 ;;
  2611                           
  2612                           	psect	text22
  2613  000C62                     __ptext22:
  2614                           	opt callstack 0
  2615  000C62                     ___xxtofl:
  2616                           	opt callstack 29
  2617                           
  2618                           ;incstack = 0
  2619                           ;___xxtofl@sign stored from wreg
  2620  000C62  6E11               	movwf	___xxtofl@sign^0,c
  2621  000C64  5011               	movf	___xxtofl@sign^0,w,c
  2622  000C66  B4D8               	btfsc	status,2,c
  2623  000C68  EF38  F006         	goto	u1851
  2624  000C6C  EF3A  F006         	goto	u1850
  2625  000C70                     u1851:
  2626  000C70  EF5C  F006         	goto	l1206
  2627  000C74                     u1850:
  2628  000C74  BE0C               	btfsc	(___xxtofl@val+3)^0,7,c
  2629  000C76  EF41  F006         	goto	u1860
  2630  000C7A  EF3F  F006         	goto	u1861
  2631  000C7E                     u1861:
  2632  000C7E  EF5C  F006         	goto	l1206
  2633  000C82                     u1860:
  2634  000C82  C009  F00D         	movff	___xxtofl@val,??___xxtofl
  2635  000C86  C00A  F00E         	movff	___xxtofl@val+1,??___xxtofl+1
  2636  000C8A  C00B  F00F         	movff	___xxtofl@val+2,??___xxtofl+2
  2637  000C8E  C00C  F010         	movff	___xxtofl@val+3,??___xxtofl+3
  2638  000C92  1E0D               	comf	??___xxtofl^0,f,c
  2639  000C94  1E0E               	comf	(??___xxtofl+1)^0,f,c
  2640  000C96  1E0F               	comf	(??___xxtofl+2)^0,f,c
  2641  000C98  1E10               	comf	(??___xxtofl+3)^0,f,c
  2642  000C9A  2A0D               	incf	??___xxtofl^0,f,c
  2643  000C9C  0E00               	movlw	0
  2644  000C9E  220E               	addwfc	(??___xxtofl+1)^0,f,c
  2645  000CA0  220F               	addwfc	(??___xxtofl+2)^0,f,c
  2646  000CA2  2210               	addwfc	(??___xxtofl+3)^0,f,c
  2647  000CA4  C00D  F013         	movff	??___xxtofl,___xxtofl@arg
  2648  000CA8  C00E  F014         	movff	??___xxtofl+1,___xxtofl@arg+1
  2649  000CAC  C00F  F015         	movff	??___xxtofl+2,___xxtofl@arg+2
  2650  000CB0  C010  F016         	movff	??___xxtofl+3,___xxtofl@arg+3
  2651  000CB4  EF64  F006         	goto	l2516
  2652  000CB8                     l1206:
  2653  000CB8  C009  F013         	movff	___xxtofl@val,___xxtofl@arg
  2654  000CBC  C00A  F014         	movff	___xxtofl@val+1,___xxtofl@arg+1
  2655  000CC0  C00B  F015         	movff	___xxtofl@val+2,___xxtofl@arg+2
  2656  000CC4  C00C  F016         	movff	___xxtofl@val+3,___xxtofl@arg+3
  2657  000CC8                     l2516:
  2658  000CC8  5009               	movf	___xxtofl@val^0,w,c
  2659  000CCA  100A               	iorwf	(___xxtofl@val+1)^0,w,c
  2660  000CCC  100B               	iorwf	(___xxtofl@val+2)^0,w,c
  2661  000CCE  100C               	iorwf	(___xxtofl@val+3)^0,w,c
  2662  000CD0  A4D8               	btfss	status,2,c
  2663  000CD2  EF6D  F006         	goto	u1871
  2664  000CD6  EF6F  F006         	goto	u1870
  2665  000CDA                     u1871:
  2666  000CDA  EF79  F006         	goto	l2522
  2667  000CDE                     u1870:
  2668  000CDE  0E00               	movlw	0
  2669  000CE0  6E09               	movwf	?___xxtofl^0,c
  2670  000CE2  0E00               	movlw	0
  2671  000CE4  6E0A               	movwf	(?___xxtofl+1)^0,c
  2672  000CE6  0E00               	movlw	0
  2673  000CE8  6E0B               	movwf	(?___xxtofl+2)^0,c
  2674  000CEA  0E00               	movlw	0
  2675  000CEC  6E0C               	movwf	(?___xxtofl+3)^0,c
  2676  000CEE  EF0A  F007         	goto	l1209
  2677  000CF2                     l2522:
  2678  000CF2  0E96               	movlw	150
  2679  000CF4  6E12               	movwf	___xxtofl@exp^0,c
  2680  000CF6  EF83  F006         	goto	l2526
  2681  000CFA                     l2524:
  2682  000CFA  2A12               	incf	___xxtofl@exp^0,f,c
  2683  000CFC  90D8               	bcf	status,0,c
  2684  000CFE  3216               	rrcf	(___xxtofl@arg+3)^0,f,c
  2685  000D00  3215               	rrcf	(___xxtofl@arg+2)^0,f,c
  2686  000D02  3214               	rrcf	(___xxtofl@arg+1)^0,f,c
  2687  000D04  3213               	rrcf	___xxtofl@arg^0,f,c
  2688  000D06                     l2526:
  2689  000D06  0E00               	movlw	0
  2690  000D08  1413               	andwf	___xxtofl@arg^0,w,c
  2691  000D0A  6E0D               	movwf	??___xxtofl^0,c
  2692  000D0C  0E00               	movlw	0
  2693  000D0E  1414               	andwf	(___xxtofl@arg+1)^0,w,c
  2694  000D10  6E0E               	movwf	(??___xxtofl+1)^0,c
  2695  000D12  0E00               	movlw	0
  2696  000D14  1415               	andwf	(___xxtofl@arg+2)^0,w,c
  2697  000D16  6E0F               	movwf	(??___xxtofl+2)^0,c
  2698  000D18  0EFE               	movlw	254
  2699  000D1A  1416               	andwf	(___xxtofl@arg+3)^0,w,c
  2700  000D1C  6E10               	movwf	(??___xxtofl+3)^0,c
  2701  000D1E  500D               	movf	??___xxtofl^0,w,c
  2702  000D20  100E               	iorwf	(??___xxtofl+1)^0,w,c
  2703  000D22  100F               	iorwf	(??___xxtofl+2)^0,w,c
  2704  000D24  1010               	iorwf	(??___xxtofl+3)^0,w,c
  2705  000D26  A4D8               	btfss	status,2,c
  2706  000D28  EF98  F006         	goto	u1881
  2707  000D2C  EF9A  F006         	goto	u1880
  2708  000D30                     u1881:
  2709  000D30  EF7D  F006         	goto	l2524
  2710  000D34                     u1880:
  2711  000D34  EFA8  F006         	goto	l1213
  2712  000D38                     l2528:
  2713  000D38  2A12               	incf	___xxtofl@exp^0,f,c
  2714  000D3A  0E01               	movlw	1
  2715  000D3C  2613               	addwf	___xxtofl@arg^0,f,c
  2716  000D3E  0E00               	movlw	0
  2717  000D40  2214               	addwfc	(___xxtofl@arg+1)^0,f,c
  2718  000D42  2215               	addwfc	(___xxtofl@arg+2)^0,f,c
  2719  000D44  2216               	addwfc	(___xxtofl@arg+3)^0,f,c
  2720  000D46  90D8               	bcf	status,0,c
  2721  000D48  3216               	rrcf	(___xxtofl@arg+3)^0,f,c
  2722  000D4A  3215               	rrcf	(___xxtofl@arg+2)^0,f,c
  2723  000D4C  3214               	rrcf	(___xxtofl@arg+1)^0,f,c
  2724  000D4E  3213               	rrcf	___xxtofl@arg^0,f,c
  2725  000D50                     l1213:
  2726  000D50  0E00               	movlw	0
  2727  000D52  1413               	andwf	___xxtofl@arg^0,w,c
  2728  000D54  6E0D               	movwf	??___xxtofl^0,c
  2729  000D56  0E00               	movlw	0
  2730  000D58  1414               	andwf	(___xxtofl@arg+1)^0,w,c
  2731  000D5A  6E0E               	movwf	(??___xxtofl+1)^0,c
  2732  000D5C  0E00               	movlw	0
  2733  000D5E  1415               	andwf	(___xxtofl@arg+2)^0,w,c
  2734  000D60  6E0F               	movwf	(??___xxtofl+2)^0,c
  2735  000D62  0EFF               	movlw	255
  2736  000D64  1416               	andwf	(___xxtofl@arg+3)^0,w,c
  2737  000D66  6E10               	movwf	(??___xxtofl+3)^0,c
  2738  000D68  500D               	movf	??___xxtofl^0,w,c
  2739  000D6A  100E               	iorwf	(??___xxtofl+1)^0,w,c
  2740  000D6C  100F               	iorwf	(??___xxtofl+2)^0,w,c
  2741  000D6E  1010               	iorwf	(??___xxtofl+3)^0,w,c
  2742  000D70  A4D8               	btfss	status,2,c
  2743  000D72  EFBD  F006         	goto	u1891
  2744  000D76  EFBF  F006         	goto	u1890
  2745  000D7A                     u1891:
  2746  000D7A  EF9C  F006         	goto	l2528
  2747  000D7E                     u1890:
  2748  000D7E  EFC7  F006         	goto	l2536
  2749  000D82                     l2534:
  2750  000D82  0612               	decf	___xxtofl@exp^0,f,c
  2751  000D84  90D8               	bcf	status,0,c
  2752  000D86  3613               	rlcf	___xxtofl@arg^0,f,c
  2753  000D88  3614               	rlcf	(___xxtofl@arg+1)^0,f,c
  2754  000D8A  3615               	rlcf	(___xxtofl@arg+2)^0,f,c
  2755  000D8C  3616               	rlcf	(___xxtofl@arg+3)^0,f,c
  2756  000D8E                     l2536:
  2757  000D8E  BE15               	btfsc	(___xxtofl@arg+2)^0,7,c
  2758  000D90  EFCC  F006         	goto	u1901
  2759  000D94  EFCE  F006         	goto	u1900
  2760  000D98                     u1901:
  2761  000D98  EFD6  F006         	goto	l1220
  2762  000D9C                     u1900:
  2763  000D9C  0E02               	movlw	2
  2764  000D9E  6012               	cpfslt	___xxtofl@exp^0,c
  2765  000DA0  EFD4  F006         	goto	u1911
  2766  000DA4  EFD6  F006         	goto	u1910
  2767  000DA8                     u1911:
  2768  000DA8  EFC1  F006         	goto	l2534
  2769  000DAC                     u1910:
  2770  000DAC                     l1220:
  2771  000DAC  B012               	btfsc	___xxtofl@exp^0,0,c
  2772  000DAE  EFDB  F006         	goto	u1921
  2773  000DB2  EFDD  F006         	goto	u1920
  2774  000DB6                     u1921:
  2775  000DB6  EFDE  F006         	goto	l2542
  2776  000DBA                     u1920:
  2777  000DBA  9E15               	bcf	(___xxtofl@arg+2)^0,7,c
  2778  000DBC                     l2542:
  2779  000DBC  90D8               	bcf	status,0,c
  2780  000DBE  3212               	rrcf	___xxtofl@exp^0,f,c
  2781  000DC0  C012  F00D         	movff	___xxtofl@exp,??___xxtofl
  2782  000DC4  6A0E               	clrf	(??___xxtofl+1)^0,c
  2783  000DC6  6A0F               	clrf	(??___xxtofl+2)^0,c
  2784  000DC8  6A10               	clrf	(??___xxtofl+3)^0,c
  2785  000DCA  C00D  F010         	movff	??___xxtofl,??___xxtofl+3
  2786  000DCE  6A0F               	clrf	(??___xxtofl+2)^0,c
  2787  000DD0  6A0E               	clrf	(??___xxtofl+1)^0,c
  2788  000DD2  6A0D               	clrf	??___xxtofl^0,c
  2789  000DD4  500D               	movf	??___xxtofl^0,w,c
  2790  000DD6  1213               	iorwf	___xxtofl@arg^0,f,c
  2791  000DD8  500E               	movf	(??___xxtofl+1)^0,w,c
  2792  000DDA  1214               	iorwf	(___xxtofl@arg+1)^0,f,c
  2793  000DDC  500F               	movf	(??___xxtofl+2)^0,w,c
  2794  000DDE  1215               	iorwf	(___xxtofl@arg+2)^0,f,c
  2795  000DE0  5010               	movf	(??___xxtofl+3)^0,w,c
  2796  000DE2  1216               	iorwf	(___xxtofl@arg+3)^0,f,c
  2797  000DE4  5011               	movf	___xxtofl@sign^0,w,c
  2798  000DE6  B4D8               	btfsc	status,2,c
  2799  000DE8  EFF8  F006         	goto	u1931
  2800  000DEC  EFFA  F006         	goto	u1930
  2801  000DF0                     u1931:
  2802  000DF0  EF02  F007         	goto	l2552
  2803  000DF4                     u1930:
  2804  000DF4  BE0C               	btfsc	(___xxtofl@val+3)^0,7,c
  2805  000DF6  EF01  F007         	goto	u1940
  2806  000DFA  EFFF  F006         	goto	u1941
  2807  000DFE                     u1941:
  2808  000DFE  EF02  F007         	goto	l2552
  2809  000E02                     u1940:
  2810  000E02  8E16               	bsf	(___xxtofl@arg+3)^0,7,c
  2811  000E04                     l2552:
  2812  000E04  C013  F009         	movff	___xxtofl@arg,?___xxtofl
  2813  000E08  C014  F00A         	movff	___xxtofl@arg+1,?___xxtofl+1
  2814  000E0C  C015  F00B         	movff	___xxtofl@arg+2,?___xxtofl+2
  2815  000E10  C016  F00C         	movff	___xxtofl@arg+3,?___xxtofl+3
  2816  000E14                     l1209:
  2817  000E14  0012               	return		;funcret
  2818  000E16                     __end_of___xxtofl:
  2819                           	opt callstack 0
  2820                           
  2821 ;; *************** function ___fldiv *****************
  2822 ;; Defined at:
  2823 ;;		line 11 in file "C:\Program Files (x86)\Microchip\xc8\v2.10\pic\sources\c99\common\sprcdiv.c"
  2824 ;; Parameters:    Size  Location     Type
  2825 ;;  b               4    0[COMRAM] unsigned char 
  2826 ;;  a               4    4[COMRAM] unsigned char 
  2827 ;; Auto vars:     Size  Location     Type
  2828 ;;  grs             4   19[COMRAM] unsigned long 
  2829 ;;  rem             4   12[COMRAM] unsigned long 
  2830 ;;  new_exp         2   17[COMRAM] short 
  2831 ;;  aexp            1   24[COMRAM] unsigned char 
  2832 ;;  bexp            1   23[COMRAM] unsigned char 
  2833 ;;  sign            1   16[COMRAM] unsigned char 
  2834 ;; Return value:  Size  Location     Type
  2835 ;;                  4    0[COMRAM] unsigned char 
  2836 ;; Registers used:
  2837 ;;		wreg, status,2, status,0
  2838 ;; Tracked objects:
  2839 ;;		On entry : 0/0
  2840 ;;		On exit  : 0/0
  2841 ;;		Unchanged: 0/0
  2842 ;; Data sizes:     COMRAM   BANK0   BANK1
  2843 ;;      Params:         8       0       0
  2844 ;;      Locals:        13       0       0
  2845 ;;      Temps:          4       0       0
  2846 ;;      Totals:        25       0       0
  2847 ;;Total ram usage:       25 bytes
  2848 ;; Hardware stack levels used:    1
  2849 ;; This function calls:
  2850 ;;		Nothing
  2851 ;; This function is called by:
  2852 ;;		_Get_Distance_Front
  2853 ;;		_Get_Distance_Rear
  2854 ;; This function uses a non-reentrant model
  2855 ;;
  2856                           
  2857                           	psect	text23
  2858  0006FE                     __ptext23:
  2859                           	opt callstack 0
  2860  0006FE                     ___fldiv:
  2861                           	opt callstack 29
  2862  0006FE  5004               	movf	(___fldiv@b+3)^0,w,c
  2863  000700  0B80               	andlw	128
  2864  000702  6E11               	movwf	___fldiv@sign^0,c
  2865  000704  5004               	movf	(___fldiv@b+3)^0,w,c
  2866  000706  2404               	addwf	(___fldiv@b+3)^0,w,c
  2867  000708  6E18               	movwf	___fldiv@bexp^0,c
  2868  00070A  AE03               	btfss	(___fldiv@b+2)^0,7,c
  2869  00070C  EF8A  F003         	goto	u1621
  2870  000710  EF8C  F003         	goto	u1620
  2871  000714                     u1621:
  2872  000714  EF8D  F003         	goto	l2378
  2873  000718                     u1620:
  2874  000718  8018               	bsf	___fldiv@bexp^0,0,c
  2875  00071A                     l2378:
  2876  00071A  5018               	movf	___fldiv@bexp^0,w,c
  2877  00071C  B4D8               	btfsc	status,2,c
  2878  00071E  EF93  F003         	goto	u1631
  2879  000722  EF95  F003         	goto	u1630
  2880  000726                     u1631:
  2881  000726  EFAA  F003         	goto	l2388
  2882  00072A                     u1630:
  2883  00072A  2818               	incf	___fldiv@bexp^0,w,c
  2884  00072C  A4D8               	btfss	status,2,c
  2885  00072E  EF9B  F003         	goto	u1641
  2886  000732  EF9D  F003         	goto	u1640
  2887  000736                     u1641:
  2888  000736  EFA5  F003         	goto	l2384
  2889  00073A                     u1640:
  2890  00073A  0E00               	movlw	0
  2891  00073C  6E01               	movwf	___fldiv@b^0,c
  2892  00073E  0E00               	movlw	0
  2893  000740  6E02               	movwf	(___fldiv@b+1)^0,c
  2894  000742  0E00               	movlw	0
  2895  000744  6E03               	movwf	(___fldiv@b+2)^0,c
  2896  000746  0E00               	movlw	0
  2897  000748  6E04               	movwf	(___fldiv@b+3)^0,c
  2898  00074A                     l2384:
  2899  00074A  8E03               	bsf	(___fldiv@b+2)^0,7,c
  2900  00074C  0E00               	movlw	0
  2901  00074E  6E04               	movwf	(___fldiv@b+3)^0,c
  2902  000750  EFB2  F003         	goto	l2390
  2903  000754                     l2388:
  2904  000754  0E00               	movlw	0
  2905  000756  6E01               	movwf	___fldiv@b^0,c
  2906  000758  0E00               	movlw	0
  2907  00075A  6E02               	movwf	(___fldiv@b+1)^0,c
  2908  00075C  0E00               	movlw	0
  2909  00075E  6E03               	movwf	(___fldiv@b+2)^0,c
  2910  000760  0E00               	movlw	0
  2911  000762  6E04               	movwf	(___fldiv@b+3)^0,c
  2912  000764                     l2390:
  2913  000764  5008               	movf	(___fldiv@a+3)^0,w,c
  2914  000766  0B80               	andlw	128
  2915  000768  1A11               	xorwf	___fldiv@sign^0,f,c
  2916  00076A  5008               	movf	(___fldiv@a+3)^0,w,c
  2917  00076C  2408               	addwf	(___fldiv@a+3)^0,w,c
  2918  00076E  6E19               	movwf	___fldiv@aexp^0,c
  2919  000770  AE07               	btfss	(___fldiv@a+2)^0,7,c
  2920  000772  EFBD  F003         	goto	u1651
  2921  000776  EFBF  F003         	goto	u1650
  2922  00077A                     u1651:
  2923  00077A  EFC0  F003         	goto	l2398
  2924  00077E                     u1650:
  2925  00077E  8019               	bsf	___fldiv@aexp^0,0,c
  2926  000780                     l2398:
  2927  000780  5019               	movf	___fldiv@aexp^0,w,c
  2928  000782  B4D8               	btfsc	status,2,c
  2929  000784  EFC6  F003         	goto	u1661
  2930  000788  EFC8  F003         	goto	u1660
  2931  00078C                     u1661:
  2932  00078C  EFDD  F003         	goto	l2408
  2933  000790                     u1660:
  2934  000790  2819               	incf	___fldiv@aexp^0,w,c
  2935  000792  A4D8               	btfss	status,2,c
  2936  000794  EFCE  F003         	goto	u1671
  2937  000798  EFD0  F003         	goto	u1670
  2938  00079C                     u1671:
  2939  00079C  EFD8  F003         	goto	l2404
  2940  0007A0                     u1670:
  2941  0007A0  0E00               	movlw	0
  2942  0007A2  6E05               	movwf	___fldiv@a^0,c
  2943  0007A4  0E00               	movlw	0
  2944  0007A6  6E06               	movwf	(___fldiv@a+1)^0,c
  2945  0007A8  0E00               	movlw	0
  2946  0007AA  6E07               	movwf	(___fldiv@a+2)^0,c
  2947  0007AC  0E00               	movlw	0
  2948  0007AE  6E08               	movwf	(___fldiv@a+3)^0,c
  2949  0007B0                     l2404:
  2950  0007B0  8E07               	bsf	(___fldiv@a+2)^0,7,c
  2951  0007B2  0E00               	movlw	0
  2952  0007B4  6E08               	movwf	(___fldiv@a+3)^0,c
  2953  0007B6  EFE5  F003         	goto	l2410
  2954  0007BA                     l2408:
  2955  0007BA  0E00               	movlw	0
  2956  0007BC  6E05               	movwf	___fldiv@a^0,c
  2957  0007BE  0E00               	movlw	0
  2958  0007C0  6E06               	movwf	(___fldiv@a+1)^0,c
  2959  0007C2  0E00               	movlw	0
  2960  0007C4  6E07               	movwf	(___fldiv@a+2)^0,c
  2961  0007C6  0E00               	movlw	0
  2962  0007C8  6E08               	movwf	(___fldiv@a+3)^0,c
  2963  0007CA                     l2410:
  2964  0007CA  5005               	movf	___fldiv@a^0,w,c
  2965  0007CC  1006               	iorwf	(___fldiv@a+1)^0,w,c
  2966  0007CE  1007               	iorwf	(___fldiv@a+2)^0,w,c
  2967  0007D0  1008               	iorwf	(___fldiv@a+3)^0,w,c
  2968  0007D2  A4D8               	btfss	status,2,c
  2969  0007D4  EFEE  F003         	goto	u1681
  2970  0007D8  EFF0  F003         	goto	u1680
  2971  0007DC                     u1681:
  2972  0007DC  EF08  F004         	goto	l2422
  2973  0007E0                     u1680:
  2974  0007E0  0E00               	movlw	0
  2975  0007E2  6E01               	movwf	___fldiv@b^0,c
  2976  0007E4  0E00               	movlw	0
  2977  0007E6  6E02               	movwf	(___fldiv@b+1)^0,c
  2978  0007E8  0E00               	movlw	0
  2979  0007EA  6E03               	movwf	(___fldiv@b+2)^0,c
  2980  0007EC  0E00               	movlw	0
  2981  0007EE  6E04               	movwf	(___fldiv@b+3)^0,c
  2982  0007F0  0E80               	movlw	128
  2983  0007F2  1203               	iorwf	(___fldiv@b+2)^0,f,c
  2984  0007F4  0E7F               	movlw	127
  2985  0007F6  1204               	iorwf	(___fldiv@b+3)^0,f,c
  2986  0007F8                     l2416:
  2987  0007F8  5011               	movf	___fldiv@sign^0,w,c
  2988  0007FA  1204               	iorwf	(___fldiv@b+3)^0,f,c
  2989  0007FC  C001  F001         	movff	___fldiv@b,?___fldiv
  2990  000800  C002  F002         	movff	___fldiv@b+1,?___fldiv+1
  2991  000804  C003  F003         	movff	___fldiv@b+2,?___fldiv+2
  2992  000808  C004  F004         	movff	___fldiv@b+3,?___fldiv+3
  2993  00080C  EF4B  F005         	goto	l1133
  2994  000810                     l2422:
  2995  000810  5018               	movf	___fldiv@bexp^0,w,c
  2996  000812  A4D8               	btfss	status,2,c
  2997  000814  EF0E  F004         	goto	u1691
  2998  000818  EF10  F004         	goto	u1690
  2999  00081C                     u1691:
  3000  00081C  EF1A  F004         	goto	l2430
  3001  000820                     u1690:
  3002  000820  0E00               	movlw	0
  3003  000822  6E01               	movwf	?___fldiv^0,c
  3004  000824  0E00               	movlw	0
  3005  000826  6E02               	movwf	(?___fldiv+1)^0,c
  3006  000828  0E00               	movlw	0
  3007  00082A  6E03               	movwf	(?___fldiv+2)^0,c
  3008  00082C  0E00               	movlw	0
  3009  00082E  6E04               	movwf	(?___fldiv+3)^0,c
  3010  000830  EF4B  F005         	goto	l1133
  3011  000834                     l2430:
  3012  000834  5019               	movf	___fldiv@aexp^0,w,c
  3013  000836  C018  F009         	movff	___fldiv@bexp,??___fldiv
  3014  00083A  6A0A               	clrf	(??___fldiv+1)^0,c
  3015  00083C  5E09               	subwf	??___fldiv^0,f,c
  3016  00083E  0E00               	movlw	0
  3017  000840  5A0A               	subwfb	(??___fldiv+1)^0,f,c
  3018  000842  0E7F               	movlw	127
  3019  000844  2409               	addwf	??___fldiv^0,w,c
  3020  000846  6E12               	movwf	___fldiv@new_exp^0,c
  3021  000848  0E00               	movlw	0
  3022  00084A  200A               	addwfc	(??___fldiv+1)^0,w,c
  3023  00084C  6E13               	movwf	(___fldiv@new_exp+1)^0,c
  3024  00084E  C001  F00D         	movff	___fldiv@b,___fldiv@rem
  3025  000852  C002  F00E         	movff	___fldiv@b+1,___fldiv@rem+1
  3026  000856  C003  F00F         	movff	___fldiv@b+2,___fldiv@rem+2
  3027  00085A  C004  F010         	movff	___fldiv@b+3,___fldiv@rem+3
  3028  00085E  0E00               	movlw	0
  3029  000860  6E01               	movwf	___fldiv@b^0,c
  3030  000862  0E00               	movlw	0
  3031  000864  6E02               	movwf	(___fldiv@b+1)^0,c
  3032  000866  0E00               	movlw	0
  3033  000868  6E03               	movwf	(___fldiv@b+2)^0,c
  3034  00086A  0E00               	movlw	0
  3035  00086C  6E04               	movwf	(___fldiv@b+3)^0,c
  3036  00086E  0E00               	movlw	0
  3037  000870  6E14               	movwf	___fldiv@grs^0,c
  3038  000872  0E00               	movlw	0
  3039  000874  6E15               	movwf	(___fldiv@grs+1)^0,c
  3040  000876  0E00               	movlw	0
  3041  000878  6E16               	movwf	(___fldiv@grs+2)^0,c
  3042  00087A  0E00               	movlw	0
  3043  00087C  6E17               	movwf	(___fldiv@grs+3)^0,c
  3044  00087E  0E00               	movlw	0
  3045  000880  6E19               	movwf	___fldiv@aexp^0,c
  3046  000882  EF7B  F004         	goto	l1135
  3047  000886                     l2440:
  3048  000886  5019               	movf	___fldiv@aexp^0,w,c
  3049  000888  B4D8               	btfsc	status,2,c
  3050  00088A  EF49  F004         	goto	u1701
  3051  00088E  EF4B  F004         	goto	u1700
  3052  000892                     u1701:
  3053  000892  EF62  F004         	goto	l2448
  3054  000896                     u1700:
  3055  000896  90D8               	bcf	status,0,c
  3056  000898  360D               	rlcf	___fldiv@rem^0,f,c
  3057  00089A  360E               	rlcf	(___fldiv@rem+1)^0,f,c
  3058  00089C  360F               	rlcf	(___fldiv@rem+2)^0,f,c
  3059  00089E  3610               	rlcf	(___fldiv@rem+3)^0,f,c
  3060  0008A0  90D8               	bcf	status,0,c
  3061  0008A2  3601               	rlcf	___fldiv@b^0,f,c
  3062  0008A4  3602               	rlcf	(___fldiv@b+1)^0,f,c
  3063  0008A6  3603               	rlcf	(___fldiv@b+2)^0,f,c
  3064  0008A8  3604               	rlcf	(___fldiv@b+3)^0,f,c
  3065  0008AA  AE17               	btfss	(___fldiv@grs+3)^0,7,c
  3066  0008AC  EF5A  F004         	goto	u1711
  3067  0008B0  EF5C  F004         	goto	u1710
  3068  0008B4                     u1711:
  3069  0008B4  EF5D  F004         	goto	l1138
  3070  0008B8                     u1710:
  3071  0008B8  8001               	bsf	___fldiv@b^0,0,c
  3072  0008BA                     l1138:
  3073  0008BA  90D8               	bcf	status,0,c
  3074  0008BC  3614               	rlcf	___fldiv@grs^0,f,c
  3075  0008BE  3615               	rlcf	(___fldiv@grs+1)^0,f,c
  3076  0008C0  3616               	rlcf	(___fldiv@grs+2)^0,f,c
  3077  0008C2  3617               	rlcf	(___fldiv@grs+3)^0,f,c
  3078  0008C4                     l2448:
  3079  0008C4  5005               	movf	___fldiv@a^0,w,c
  3080  0008C6  5C0D               	subwf	___fldiv@rem^0,w,c
  3081  0008C8  5006               	movf	(___fldiv@a+1)^0,w,c
  3082  0008CA  580E               	subwfb	(___fldiv@rem+1)^0,w,c
  3083  0008CC  5007               	movf	(___fldiv@a+2)^0,w,c
  3084  0008CE  580F               	subwfb	(___fldiv@rem+2)^0,w,c
  3085  0008D0  5008               	movf	(___fldiv@a+3)^0,w,c
  3086  0008D2  5810               	subwfb	(___fldiv@rem+3)^0,w,c
  3087  0008D4  A0D8               	btfss	status,0,c
  3088  0008D6  EF6F  F004         	goto	u1721
  3089  0008DA  EF71  F004         	goto	u1720
  3090  0008DE                     u1721:
  3091  0008DE  EF7A  F004         	goto	l2454
  3092  0008E2                     u1720:
  3093  0008E2  8C17               	bsf	(___fldiv@grs+3)^0,6,c
  3094  0008E4  5005               	movf	___fldiv@a^0,w,c
  3095  0008E6  5E0D               	subwf	___fldiv@rem^0,f,c
  3096  0008E8  5006               	movf	(___fldiv@a+1)^0,w,c
  3097  0008EA  5A0E               	subwfb	(___fldiv@rem+1)^0,f,c
  3098  0008EC  5007               	movf	(___fldiv@a+2)^0,w,c
  3099  0008EE  5A0F               	subwfb	(___fldiv@rem+2)^0,f,c
  3100  0008F0  5008               	movf	(___fldiv@a+3)^0,w,c
  3101  0008F2  5A10               	subwfb	(___fldiv@rem+3)^0,f,c
  3102  0008F4                     l2454:
  3103  0008F4  2A19               	incf	___fldiv@aexp^0,f,c
  3104  0008F6                     l1135:
  3105  0008F6  0E19               	movlw	25
  3106  0008F8  6419               	cpfsgt	___fldiv@aexp^0,c
  3107  0008FA  EF81  F004         	goto	u1731
  3108  0008FE  EF83  F004         	goto	u1730
  3109  000902                     u1731:
  3110  000902  EF43  F004         	goto	l2440
  3111  000906                     u1730:
  3112  000906  500D               	movf	___fldiv@rem^0,w,c
  3113  000908  100E               	iorwf	(___fldiv@rem+1)^0,w,c
  3114  00090A  100F               	iorwf	(___fldiv@rem+2)^0,w,c
  3115  00090C  1010               	iorwf	(___fldiv@rem+3)^0,w,c
  3116  00090E  B4D8               	btfsc	status,2,c
  3117  000910  EF8C  F004         	goto	u1741
  3118  000914  EF8E  F004         	goto	u1740
  3119  000918                     u1741:
  3120  000918  EFA6  F004         	goto	l2466
  3121  00091C                     u1740:
  3122  00091C  8014               	bsf	___fldiv@grs^0,0,c
  3123  00091E  EFA6  F004         	goto	l2466
  3124  000922                     l2460:
  3125  000922  90D8               	bcf	status,0,c
  3126  000924  3601               	rlcf	___fldiv@b^0,f,c
  3127  000926  3602               	rlcf	(___fldiv@b+1)^0,f,c
  3128  000928  3603               	rlcf	(___fldiv@b+2)^0,f,c
  3129  00092A  3604               	rlcf	(___fldiv@b+3)^0,f,c
  3130  00092C  AE17               	btfss	(___fldiv@grs+3)^0,7,c
  3131  00092E  EF9B  F004         	goto	u1751
  3132  000932  EF9D  F004         	goto	u1750
  3133  000936                     u1751:
  3134  000936  EF9E  F004         	goto	l1144
  3135  00093A                     u1750:
  3136  00093A  8001               	bsf	___fldiv@b^0,0,c
  3137  00093C                     l1144:
  3138  00093C  90D8               	bcf	status,0,c
  3139  00093E  3614               	rlcf	___fldiv@grs^0,f,c
  3140  000940  3615               	rlcf	(___fldiv@grs+1)^0,f,c
  3141  000942  3616               	rlcf	(___fldiv@grs+2)^0,f,c
  3142  000944  3617               	rlcf	(___fldiv@grs+3)^0,f,c
  3143  000946  0612               	decf	___fldiv@new_exp^0,f,c
  3144  000948  A0D8               	btfss	status,0,c
  3145  00094A  0613               	decf	(___fldiv@new_exp+1)^0,f,c
  3146  00094C                     l2466:
  3147  00094C  AE03               	btfss	(___fldiv@b+2)^0,7,c
  3148  00094E  EFAB  F004         	goto	u1761
  3149  000952  EFAD  F004         	goto	u1760
  3150  000956                     u1761:
  3151  000956  EF91  F004         	goto	l2460
  3152  00095A                     u1760:
  3153  00095A  0E00               	movlw	0
  3154  00095C  6E19               	movwf	___fldiv@aexp^0,c
  3155  00095E  AE17               	btfss	(___fldiv@grs+3)^0,7,c
  3156  000960  EFB4  F004         	goto	u1771
  3157  000964  EFB6  F004         	goto	u1770
  3158  000968                     u1771:
  3159  000968  EFDA  F004         	goto	l1146
  3160  00096C                     u1770:
  3161  00096C  0EFF               	movlw	255
  3162  00096E  1414               	andwf	___fldiv@grs^0,w,c
  3163  000970  6E09               	movwf	??___fldiv^0,c
  3164  000972  0EFF               	movlw	255
  3165  000974  1415               	andwf	(___fldiv@grs+1)^0,w,c
  3166  000976  6E0A               	movwf	(??___fldiv+1)^0,c
  3167  000978  0EFF               	movlw	255
  3168  00097A  1416               	andwf	(___fldiv@grs+2)^0,w,c
  3169  00097C  6E0B               	movwf	(??___fldiv+2)^0,c
  3170  00097E  0E7F               	movlw	127
  3171  000980  1417               	andwf	(___fldiv@grs+3)^0,w,c
  3172  000982  6E0C               	movwf	(??___fldiv+3)^0,c
  3173  000984  5009               	movf	??___fldiv^0,w,c
  3174  000986  100A               	iorwf	(??___fldiv+1)^0,w,c
  3175  000988  100B               	iorwf	(??___fldiv+2)^0,w,c
  3176  00098A  100C               	iorwf	(??___fldiv+3)^0,w,c
  3177  00098C  B4D8               	btfsc	status,2,c
  3178  00098E  EFCB  F004         	goto	u1781
  3179  000992  EFCD  F004         	goto	u1780
  3180  000996                     u1781:
  3181  000996  EFD1  F004         	goto	l1147
  3182  00099A                     u1780:
  3183  00099A                     l2474:
  3184  00099A  0E01               	movlw	1
  3185  00099C  6E19               	movwf	___fldiv@aexp^0,c
  3186  00099E  EFDA  F004         	goto	l1146
  3187  0009A2                     l1147:
  3188  0009A2  A001               	btfss	___fldiv@b^0,0,c
  3189  0009A4  EFD6  F004         	goto	u1791
  3190  0009A8  EFD8  F004         	goto	u1790
  3191  0009AC                     u1791:
  3192  0009AC  EFDA  F004         	goto	l1146
  3193  0009B0                     u1790:
  3194  0009B0  EFCD  F004         	goto	l2474
  3195  0009B4                     l1146:
  3196  0009B4  5019               	movf	___fldiv@aexp^0,w,c
  3197  0009B6  B4D8               	btfsc	status,2,c
  3198  0009B8  EFE0  F004         	goto	u1801
  3199  0009BC  EFE2  F004         	goto	u1800
  3200  0009C0                     u1801:
  3201  0009C0  EF06  F005         	goto	l2486
  3202  0009C4                     u1800:
  3203  0009C4  0E01               	movlw	1
  3204  0009C6  2601               	addwf	___fldiv@b^0,f,c
  3205  0009C8  0E00               	movlw	0
  3206  0009CA  2202               	addwfc	(___fldiv@b+1)^0,f,c
  3207  0009CC  2203               	addwfc	(___fldiv@b+2)^0,f,c
  3208  0009CE  2204               	addwfc	(___fldiv@b+3)^0,f,c
  3209  0009D0  A004               	btfss	(___fldiv@b+3)^0,0,c
  3210  0009D2  EFED  F004         	goto	u1811
  3211  0009D6  EFEF  F004         	goto	u1810
  3212  0009DA                     u1811:
  3213  0009DA  EF06  F005         	goto	l2486
  3214  0009DE                     u1810:
  3215  0009DE  C001  F009         	movff	___fldiv@b,??___fldiv
  3216  0009E2  C002  F00A         	movff	___fldiv@b+1,??___fldiv+1
  3217  0009E6  C003  F00B         	movff	___fldiv@b+2,??___fldiv+2
  3218  0009EA  C004  F00C         	movff	___fldiv@b+3,??___fldiv+3
  3219  0009EE  340C               	rlcf	(??___fldiv+3)^0,w,c
  3220  0009F0  320C               	rrcf	(??___fldiv+3)^0,f,c
  3221  0009F2  320B               	rrcf	(??___fldiv+2)^0,f,c
  3222  0009F4  320A               	rrcf	(??___fldiv+1)^0,f,c
  3223  0009F6  3209               	rrcf	??___fldiv^0,f,c
  3224  0009F8  C009  F001         	movff	??___fldiv,___fldiv@b
  3225  0009FC  C00A  F002         	movff	??___fldiv+1,___fldiv@b+1
  3226  000A00  C00B  F003         	movff	??___fldiv+2,___fldiv@b+2
  3227  000A04  C00C  F004         	movff	??___fldiv+3,___fldiv@b+3
  3228  000A08  4A12               	infsnz	___fldiv@new_exp^0,f,c
  3229  000A0A  2A13               	incf	(___fldiv@new_exp+1)^0,f,c
  3230  000A0C                     l2486:
  3231  000A0C  BE13               	btfsc	(___fldiv@new_exp+1)^0,7,c
  3232  000A0E  EF11  F005         	goto	u1821
  3233  000A12  5013               	movf	(___fldiv@new_exp+1)^0,w,c
  3234  000A14  E108               	bnz	u1820
  3235  000A16  2812               	incf	___fldiv@new_exp^0,w,c
  3236  000A18  A0D8               	btfss	status,0,c
  3237  000A1A  EF11  F005         	goto	u1821
  3238  000A1E  EF13  F005         	goto	u1820
  3239  000A22                     u1821:
  3240  000A22  EF1E  F005         	goto	l2490
  3241  000A26                     u1820:
  3242  000A26  0E00               	movlw	0
  3243  000A28  6E13               	movwf	(___fldiv@new_exp+1)^0,c
  3244  000A2A  6812               	setf	___fldiv@new_exp^0,c
  3245  000A2C  0E00               	movlw	0
  3246  000A2E  6E01               	movwf	___fldiv@b^0,c
  3247  000A30  0E00               	movlw	0
  3248  000A32  6E02               	movwf	(___fldiv@b+1)^0,c
  3249  000A34  0E00               	movlw	0
  3250  000A36  6E03               	movwf	(___fldiv@b+2)^0,c
  3251  000A38  0E00               	movlw	0
  3252  000A3A  6E04               	movwf	(___fldiv@b+3)^0,c
  3253  000A3C                     l2490:
  3254  000A3C  BE13               	btfsc	(___fldiv@new_exp+1)^0,7,c
  3255  000A3E  EF2B  F005         	goto	u1830
  3256  000A42  5013               	movf	(___fldiv@new_exp+1)^0,w,c
  3257  000A44  E106               	bnz	u1831
  3258  000A46  0412               	decf	___fldiv@new_exp^0,w,c
  3259  000A48  B0D8               	btfsc	status,0,c
  3260  000A4A  EF29  F005         	goto	u1831
  3261  000A4E  EF2B  F005         	goto	u1830
  3262  000A52                     u1831:
  3263  000A52  EF39  F005         	goto	l2494
  3264  000A56                     u1830:
  3265  000A56  0E00               	movlw	0
  3266  000A58  6E13               	movwf	(___fldiv@new_exp+1)^0,c
  3267  000A5A  0E00               	movlw	0
  3268  000A5C  6E12               	movwf	___fldiv@new_exp^0,c
  3269  000A5E  0E00               	movlw	0
  3270  000A60  6E01               	movwf	___fldiv@b^0,c
  3271  000A62  0E00               	movlw	0
  3272  000A64  6E02               	movwf	(___fldiv@b+1)^0,c
  3273  000A66  0E00               	movlw	0
  3274  000A68  6E03               	movwf	(___fldiv@b+2)^0,c
  3275  000A6A  0E00               	movlw	0
  3276  000A6C  6E04               	movwf	(___fldiv@b+3)^0,c
  3277  000A6E  0E00               	movlw	0
  3278  000A70  6E11               	movwf	___fldiv@sign^0,c
  3279  000A72                     l2494:
  3280  000A72  C012  F018         	movff	___fldiv@new_exp,___fldiv@bexp
  3281  000A76  A018               	btfss	___fldiv@bexp^0,0,c
  3282  000A78  EF40  F005         	goto	u1841
  3283  000A7C  EF42  F005         	goto	u1840
  3284  000A80                     u1841:
  3285  000A80  EF45  F005         	goto	l2500
  3286  000A84                     u1840:
  3287  000A84  8E03               	bsf	(___fldiv@b+2)^0,7,c
  3288  000A86  EF46  F005         	goto	l2502
  3289  000A8A                     l2500:
  3290  000A8A  9E03               	bcf	(___fldiv@b+2)^0,7,c
  3291  000A8C                     l2502:
  3292  000A8C  90D8               	bcf	status,0,c
  3293  000A8E  3018               	rrcf	___fldiv@bexp^0,w,c
  3294  000A90  6E04               	movwf	(___fldiv@b+3)^0,c
  3295  000A92  EFFC  F003         	goto	l2416
  3296  000A96                     l1133:
  3297  000A96  0012               	return		;funcret
  3298  000A98                     __end_of___fldiv:
  3299                           	opt callstack 0
  3300                           
  3301 ;; *************** function ___fladd *****************
  3302 ;; Defined at:
  3303 ;;		line 10 in file "C:\Program Files (x86)\Microchip\xc8\v2.10\pic\sources\c99\common\sprcadd.c"
  3304 ;; Parameters:    Size  Location     Type
  3305 ;;  b               4    0[COMRAM] unsigned char 
  3306 ;;  a               4    4[COMRAM] unsigned char 
  3307 ;; Auto vars:     Size  Location     Type
  3308 ;;  grs             1   15[COMRAM] unsigned char 
  3309 ;;  bexp            1   14[COMRAM] unsigned char 
  3310 ;;  aexp            1   13[COMRAM] unsigned char 
  3311 ;;  signs           1   12[COMRAM] unsigned char 
  3312 ;; Return value:  Size  Location     Type
  3313 ;;                  4    0[COMRAM] unsigned char 
  3314 ;; Registers used:
  3315 ;;		wreg, status,2, status,0
  3316 ;; Tracked objects:
  3317 ;;		On entry : 0/0
  3318 ;;		On exit  : 0/0
  3319 ;;		Unchanged: 0/0
  3320 ;; Data sizes:     COMRAM   BANK0   BANK1
  3321 ;;      Params:         8       0       0
  3322 ;;      Locals:         4       0       0
  3323 ;;      Temps:          4       0       0
  3324 ;;      Totals:        16       0       0
  3325 ;;Total ram usage:       16 bytes
  3326 ;; Hardware stack levels used:    1
  3327 ;; This function calls:
  3328 ;;		Nothing
  3329 ;; This function is called by:
  3330 ;;		_Get_Distance_Front
  3331 ;;		_Get_Distance_Rear
  3332 ;; This function uses a non-reentrant model
  3333 ;;
  3334                           
  3335                           	psect	text24
  3336  00023E                     __ptext24:
  3337                           	opt callstack 0
  3338  00023E                     ___fladd:
  3339                           	opt callstack 29
  3340  00023E  5004               	movf	(___fladd@b+3)^0,w,c
  3341  000240  0B80               	andlw	128
  3342  000242  6E0D               	movwf	___fladd@signs^0,c
  3343  000244  5004               	movf	(___fladd@b+3)^0,w,c
  3344  000246  2404               	addwf	(___fladd@b+3)^0,w,c
  3345  000248  6E0F               	movwf	___fladd@bexp^0,c
  3346  00024A  AE03               	btfss	(___fladd@b+2)^0,7,c
  3347  00024C  EF2A  F001         	goto	u1231
  3348  000250  EF2C  F001         	goto	u1230
  3349  000254                     u1231:
  3350  000254  EF2D  F001         	goto	l2176
  3351  000258                     u1230:
  3352  000258  800F               	bsf	___fladd@bexp^0,0,c
  3353  00025A                     l2176:
  3354  00025A  500F               	movf	___fladd@bexp^0,w,c
  3355  00025C  B4D8               	btfsc	status,2,c
  3356  00025E  EF33  F001         	goto	u1241
  3357  000262  EF35  F001         	goto	u1240
  3358  000266                     u1241:
  3359  000266  EF4A  F001         	goto	l2186
  3360  00026A                     u1240:
  3361  00026A  280F               	incf	___fladd@bexp^0,w,c
  3362  00026C  A4D8               	btfss	status,2,c
  3363  00026E  EF3B  F001         	goto	u1251
  3364  000272  EF3D  F001         	goto	u1250
  3365  000276                     u1251:
  3366  000276  EF45  F001         	goto	l2182
  3367  00027A                     u1250:
  3368  00027A  0E00               	movlw	0
  3369  00027C  6E01               	movwf	___fladd@b^0,c
  3370  00027E  0E00               	movlw	0
  3371  000280  6E02               	movwf	(___fladd@b+1)^0,c
  3372  000282  0E00               	movlw	0
  3373  000284  6E03               	movwf	(___fladd@b+2)^0,c
  3374  000286  0E00               	movlw	0
  3375  000288  6E04               	movwf	(___fladd@b+3)^0,c
  3376  00028A                     l2182:
  3377  00028A  8E03               	bsf	(___fladd@b+2)^0,7,c
  3378  00028C  0E00               	movlw	0
  3379  00028E  6E04               	movwf	(___fladd@b+3)^0,c
  3380  000290  EF52  F001         	goto	l2188
  3381  000294                     l2186:
  3382  000294  0E00               	movlw	0
  3383  000296  6E01               	movwf	___fladd@b^0,c
  3384  000298  0E00               	movlw	0
  3385  00029A  6E02               	movwf	(___fladd@b+1)^0,c
  3386  00029C  0E00               	movlw	0
  3387  00029E  6E03               	movwf	(___fladd@b+2)^0,c
  3388  0002A0  0E00               	movlw	0
  3389  0002A2  6E04               	movwf	(___fladd@b+3)^0,c
  3390  0002A4                     l2188:
  3391  0002A4  5008               	movf	(___fladd@a+3)^0,w,c
  3392  0002A6  0B80               	andlw	128
  3393  0002A8  6E0E               	movwf	___fladd@aexp^0,c
  3394  0002AA  500D               	movf	___fladd@signs^0,w,c
  3395  0002AC  180E               	xorwf	___fladd@aexp^0,w,c
  3396  0002AE  B4D8               	btfsc	status,2,c
  3397  0002B0  EF5C  F001         	goto	u1261
  3398  0002B4  EF5E  F001         	goto	u1260
  3399  0002B8                     u1261:
  3400  0002B8  EF5F  F001         	goto	l2194
  3401  0002BC                     u1260:
  3402  0002BC  8C0D               	bsf	___fladd@signs^0,6,c
  3403  0002BE                     l2194:
  3404  0002BE  5008               	movf	(___fladd@a+3)^0,w,c
  3405  0002C0  2408               	addwf	(___fladd@a+3)^0,w,c
  3406  0002C2  6E0E               	movwf	___fladd@aexp^0,c
  3407  0002C4  AE07               	btfss	(___fladd@a+2)^0,7,c
  3408  0002C6  EF67  F001         	goto	u1271
  3409  0002CA  EF69  F001         	goto	u1270
  3410  0002CE                     u1271:
  3411  0002CE  EF6A  F001         	goto	l2200
  3412  0002D2                     u1270:
  3413  0002D2  800E               	bsf	___fladd@aexp^0,0,c
  3414  0002D4                     l2200:
  3415  0002D4  500E               	movf	___fladd@aexp^0,w,c
  3416  0002D6  B4D8               	btfsc	status,2,c
  3417  0002D8  EF70  F001         	goto	u1281
  3418  0002DC  EF72  F001         	goto	u1280
  3419  0002E0                     u1281:
  3420  0002E0  EF87  F001         	goto	l2210
  3421  0002E4                     u1280:
  3422  0002E4  280E               	incf	___fladd@aexp^0,w,c
  3423  0002E6  A4D8               	btfss	status,2,c
  3424  0002E8  EF78  F001         	goto	u1291
  3425  0002EC  EF7A  F001         	goto	u1290
  3426  0002F0                     u1291:
  3427  0002F0  EF82  F001         	goto	l2206
  3428  0002F4                     u1290:
  3429  0002F4  0E00               	movlw	0
  3430  0002F6  6E05               	movwf	___fladd@a^0,c
  3431  0002F8  0E00               	movlw	0
  3432  0002FA  6E06               	movwf	(___fladd@a+1)^0,c
  3433  0002FC  0E00               	movlw	0
  3434  0002FE  6E07               	movwf	(___fladd@a+2)^0,c
  3435  000300  0E00               	movlw	0
  3436  000302  6E08               	movwf	(___fladd@a+3)^0,c
  3437  000304                     l2206:
  3438  000304  8E07               	bsf	(___fladd@a+2)^0,7,c
  3439  000306  0E00               	movlw	0
  3440  000308  6E08               	movwf	(___fladd@a+3)^0,c
  3441  00030A  EF8F  F001         	goto	l2212
  3442  00030E                     l2210:
  3443  00030E  0E00               	movlw	0
  3444  000310  6E05               	movwf	___fladd@a^0,c
  3445  000312  0E00               	movlw	0
  3446  000314  6E06               	movwf	(___fladd@a+1)^0,c
  3447  000316  0E00               	movlw	0
  3448  000318  6E07               	movwf	(___fladd@a+2)^0,c
  3449  00031A  0E00               	movlw	0
  3450  00031C  6E08               	movwf	(___fladd@a+3)^0,c
  3451  00031E                     l2212:
  3452  00031E  500F               	movf	___fladd@bexp^0,w,c
  3453  000320  5C0E               	subwf	___fladd@aexp^0,w,c
  3454  000322  B0D8               	btfsc	status,0,c
  3455  000324  EF96  F001         	goto	u1301
  3456  000328  EF98  F001         	goto	u1300
  3457  00032C                     u1301:
  3458  00032C  EFBF  F001         	goto	l2248
  3459  000330                     u1300:
  3460  000330  AC0D               	btfss	___fladd@signs^0,6,c
  3461  000332  EF9D  F001         	goto	u1311
  3462  000336  EF9F  F001         	goto	u1310
  3463  00033A                     u1311:
  3464  00033A  EFA1  F001         	goto	l2218
  3465  00033E                     u1310:
  3466  00033E  0E80               	movlw	128
  3467  000340  1A0D               	xorwf	___fladd@signs^0,f,c
  3468  000342                     l2218:
  3469  000342  C00F  F010         	movff	___fladd@bexp,___fladd@grs
  3470  000346  C00E  F00F         	movff	___fladd@aexp,___fladd@bexp
  3471  00034A  C010  F00E         	movff	___fladd@grs,___fladd@aexp
  3472  00034E  C001  F010         	movff	___fladd@b,___fladd@grs
  3473  000352  C005  F001         	movff	___fladd@a,___fladd@b
  3474  000356  C010  F005         	movff	___fladd@grs,___fladd@a
  3475  00035A  C002  F010         	movff	___fladd@b+1,___fladd@grs
  3476  00035E  C006  F002         	movff	___fladd@a+1,___fladd@b+1
  3477  000362  C010  F006         	movff	___fladd@grs,___fladd@a+1
  3478  000366  C003  F010         	movff	___fladd@b+2,___fladd@grs
  3479  00036A  C007  F003         	movff	___fladd@a+2,___fladd@b+2
  3480  00036E  C010  F007         	movff	___fladd@grs,___fladd@a+2
  3481  000372  C004  F010         	movff	___fladd@b+3,___fladd@grs
  3482  000376  C008  F004         	movff	___fladd@a+3,___fladd@b+3
  3483  00037A  C010  F008         	movff	___fladd@grs,___fladd@a+3
  3484  00037E                     l2248:
  3485  00037E  0E00               	movlw	0
  3486  000380  6E10               	movwf	___fladd@grs^0,c
  3487  000382  500F               	movf	___fladd@bexp^0,w,c
  3488  000384  C00E  F009         	movff	___fladd@aexp,??___fladd
  3489  000388  6A0A               	clrf	(??___fladd+1)^0,c
  3490  00038A  5E09               	subwf	??___fladd^0,f,c
  3491  00038C  0E00               	movlw	0
  3492  00038E  5A0A               	subwfb	(??___fladd+1)^0,f,c
  3493  000390  BE0A               	btfsc	(??___fladd+1)^0,7,c
  3494  000392  EFD4  F001         	goto	u1321
  3495  000396  500A               	movf	(??___fladd+1)^0,w,c
  3496  000398  E109               	bnz	u1320
  3497  00039A  0E1A               	movlw	26
  3498  00039C  5C09               	subwf	??___fladd^0,w,c
  3499  00039E  A0D8               	btfss	status,0,c
  3500  0003A0  EFD4  F001         	goto	u1321
  3501  0003A4  EFD6  F001         	goto	u1320
  3502  0003A8                     u1321:
  3503  0003A8  EF0D  F002         	goto	l1080
  3504  0003AC                     u1320:
  3505  0003AC  5001               	movf	___fladd@b^0,w,c
  3506  0003AE  1002               	iorwf	(___fladd@b+1)^0,w,c
  3507  0003B0  1003               	iorwf	(___fladd@b+2)^0,w,c
  3508  0003B2  1004               	iorwf	(___fladd@b+3)^0,w,c
  3509  0003B4  A4D8               	btfss	status,2,c
  3510  0003B6  EFDF  F001         	goto	u1331
  3511  0003BA  EFE2  F001         	goto	u1330
  3512  0003BE                     u1331:
  3513  0003BE  0E01               	movlw	1
  3514  0003C0  EFE3  F001         	goto	u1340
  3515  0003C4                     u1330:
  3516  0003C4  0E00               	movlw	0
  3517  0003C6                     u1340:
  3518  0003C6  6E10               	movwf	___fladd@grs^0,c
  3519  0003C8  0E00               	movlw	0
  3520  0003CA  6E01               	movwf	___fladd@b^0,c
  3521  0003CC  0E00               	movlw	0
  3522  0003CE  6E02               	movwf	(___fladd@b+1)^0,c
  3523  0003D0  0E00               	movlw	0
  3524  0003D2  6E03               	movwf	(___fladd@b+2)^0,c
  3525  0003D4  0E00               	movlw	0
  3526  0003D6  6E04               	movwf	(___fladd@b+3)^0,c
  3527  0003D8  C00E  F00F         	movff	___fladd@aexp,___fladd@bexp
  3528  0003DC  EF16  F002         	goto	l1079
  3529  0003E0                     l1081:
  3530  0003E0  A010               	btfss	___fladd@grs^0,0,c
  3531  0003E2  EFF5  F001         	goto	u1351
  3532  0003E6  EFF7  F001         	goto	u1350
  3533  0003EA                     u1351:
  3534  0003EA  EFFD  F001         	goto	l2260
  3535  0003EE                     u1350:
  3536  0003EE  90D8               	bcf	status,0,c
  3537  0003F0  3010               	rrcf	___fladd@grs^0,w,c
  3538  0003F2  0901               	iorlw	1
  3539  0003F4  6E10               	movwf	___fladd@grs^0,c
  3540  0003F6  EFFF  F001         	goto	l2262
  3541  0003FA                     l2260:
  3542  0003FA  90D8               	bcf	status,0,c
  3543  0003FC  3210               	rrcf	___fladd@grs^0,f,c
  3544  0003FE                     l2262:
  3545  0003FE  A001               	btfss	___fladd@b^0,0,c
  3546  000400  EF04  F002         	goto	u1361
  3547  000404  EF06  F002         	goto	u1360
  3548  000408                     u1361:
  3549  000408  EF07  F002         	goto	l2266
  3550  00040C                     u1360:
  3551  00040C  8E10               	bsf	___fladd@grs^0,7,c
  3552  00040E                     l2266:
  3553  00040E  3404               	rlcf	(___fladd@b+3)^0,w,c
  3554  000410  3204               	rrcf	(___fladd@b+3)^0,f,c
  3555  000412  3203               	rrcf	(___fladd@b+2)^0,f,c
  3556  000414  3202               	rrcf	(___fladd@b+1)^0,f,c
  3557  000416  3201               	rrcf	___fladd@b^0,f,c
  3558  000418  2A0F               	incf	___fladd@bexp^0,f,c
  3559  00041A                     l1080:
  3560  00041A  500E               	movf	___fladd@aexp^0,w,c
  3561  00041C  5C0F               	subwf	___fladd@bexp^0,w,c
  3562  00041E  A0D8               	btfss	status,0,c
  3563  000420  EF14  F002         	goto	u1371
  3564  000424  EF16  F002         	goto	u1370
  3565  000428                     u1371:
  3566  000428  EFF0  F001         	goto	l1081
  3567  00042C                     u1370:
  3568  00042C                     l1079:
  3569  00042C  BC0D               	btfsc	___fladd@signs^0,6,c
  3570  00042E  EF1B  F002         	goto	u1381
  3571  000432  EF1D  F002         	goto	u1380
  3572  000436                     u1381:
  3573  000436  EF5D  F002         	goto	l2294
  3574  00043A                     u1380:
  3575  00043A  500F               	movf	___fladd@bexp^0,w,c
  3576  00043C  A4D8               	btfss	status,2,c
  3577  00043E  EF23  F002         	goto	u1391
  3578  000442  EF25  F002         	goto	u1390
  3579  000446                     u1391:
  3580  000446  EF2F  F002         	goto	l2276
  3581  00044A                     u1390:
  3582  00044A  0E00               	movlw	0
  3583  00044C  6E01               	movwf	?___fladd^0,c
  3584  00044E  0E00               	movlw	0
  3585  000450  6E02               	movwf	(?___fladd+1)^0,c
  3586  000452  0E00               	movlw	0
  3587  000454  6E03               	movwf	(?___fladd+2)^0,c
  3588  000456  0E00               	movlw	0
  3589  000458  6E04               	movwf	(?___fladd+3)^0,c
  3590  00045A  EF7E  F003         	goto	l1088
  3591  00045E                     l2276:
  3592  00045E  5005               	movf	___fladd@a^0,w,c
  3593  000460  2601               	addwf	___fladd@b^0,f,c
  3594  000462  5006               	movf	(___fladd@a+1)^0,w,c
  3595  000464  2202               	addwfc	(___fladd@b+1)^0,f,c
  3596  000466  5007               	movf	(___fladd@a+2)^0,w,c
  3597  000468  2203               	addwfc	(___fladd@b+2)^0,f,c
  3598  00046A  5008               	movf	(___fladd@a+3)^0,w,c
  3599  00046C  2204               	addwfc	(___fladd@b+3)^0,f,c
  3600  00046E  A004               	btfss	(___fladd@b+3)^0,0,c
  3601  000470  EF3C  F002         	goto	u1401
  3602  000474  EF3E  F002         	goto	u1400
  3603  000478                     u1401:
  3604  000478  EFEA  F002         	goto	l2330
  3605  00047C                     u1400:
  3606  00047C  A010               	btfss	___fladd@grs^0,0,c
  3607  00047E  EF43  F002         	goto	u1411
  3608  000482  EF45  F002         	goto	u1410
  3609  000486                     u1411:
  3610  000486  EF4B  F002         	goto	l2284
  3611  00048A                     u1410:
  3612  00048A  90D8               	bcf	status,0,c
  3613  00048C  3010               	rrcf	___fladd@grs^0,w,c
  3614  00048E  0901               	iorlw	1
  3615  000490  6E10               	movwf	___fladd@grs^0,c
  3616  000492  EF4D  F002         	goto	l2286
  3617  000496                     l2284:
  3618  000496  90D8               	bcf	status,0,c
  3619  000498  3210               	rrcf	___fladd@grs^0,f,c
  3620  00049A                     l2286:
  3621  00049A  A001               	btfss	___fladd@b^0,0,c
  3622  00049C  EF52  F002         	goto	u1421
  3623  0004A0  EF54  F002         	goto	u1420
  3624  0004A4                     u1421:
  3625  0004A4  EF55  F002         	goto	l2290
  3626  0004A8                     u1420:
  3627  0004A8  8E10               	bsf	___fladd@grs^0,7,c
  3628  0004AA                     l2290:
  3629  0004AA  3404               	rlcf	(___fladd@b+3)^0,w,c
  3630  0004AC  3204               	rrcf	(___fladd@b+3)^0,f,c
  3631  0004AE  3203               	rrcf	(___fladd@b+2)^0,f,c
  3632  0004B0  3202               	rrcf	(___fladd@b+1)^0,f,c
  3633  0004B2  3201               	rrcf	___fladd@b^0,f,c
  3634  0004B4  2A0F               	incf	___fladd@bexp^0,f,c
  3635  0004B6  EFEA  F002         	goto	l2330
  3636  0004BA                     l2294:
  3637  0004BA  5005               	movf	___fladd@a^0,w,c
  3638  0004BC  5C01               	subwf	___fladd@b^0,w,c
  3639  0004BE  5006               	movf	(___fladd@a+1)^0,w,c
  3640  0004C0  5802               	subwfb	(___fladd@b+1)^0,w,c
  3641  0004C2  5007               	movf	(___fladd@a+2)^0,w,c
  3642  0004C4  5803               	subwfb	(___fladd@b+2)^0,w,c
  3643  0004C6  5004               	movf	(___fladd@b+3)^0,w,c
  3644  0004C8  0A80               	xorlw	128
  3645  0004CA  6E09               	movwf	??___fladd^0,c
  3646  0004CC  5008               	movf	(___fladd@a+3)^0,w,c
  3647  0004CE  0A80               	xorlw	128
  3648  0004D0  5809               	subwfb	??___fladd^0,w,c
  3649  0004D2  B0D8               	btfsc	status,0,c
  3650  0004D4  EF6E  F002         	goto	u1431
  3651  0004D8  EF70  F002         	goto	u1430
  3652  0004DC                     u1431:
  3653  0004DC  EF9B  F002         	goto	l2304
  3654  0004E0                     u1430:
  3655  0004E0  5001               	movf	___fladd@b^0,w,c
  3656  0004E2  5C05               	subwf	___fladd@a^0,w,c
  3657  0004E4  6E09               	movwf	??___fladd^0,c
  3658  0004E6  5002               	movf	(___fladd@b+1)^0,w,c
  3659  0004E8  5806               	subwfb	(___fladd@a+1)^0,w,c
  3660  0004EA  6E0A               	movwf	(??___fladd+1)^0,c
  3661  0004EC  5003               	movf	(___fladd@b+2)^0,w,c
  3662  0004EE  5807               	subwfb	(___fladd@a+2)^0,w,c
  3663  0004F0  6E0B               	movwf	(??___fladd+2)^0,c
  3664  0004F2  5004               	movf	(___fladd@b+3)^0,w,c
  3665  0004F4  5808               	subwfb	(___fladd@a+3)^0,w,c
  3666  0004F6  6E0C               	movwf	(??___fladd+3)^0,c
  3667  0004F8  0EFF               	movlw	255
  3668  0004FA  2409               	addwf	??___fladd^0,w,c
  3669  0004FC  6E01               	movwf	___fladd@b^0,c
  3670  0004FE  0EFF               	movlw	255
  3671  000500  200A               	addwfc	(??___fladd+1)^0,w,c
  3672  000502  6E02               	movwf	(___fladd@b+1)^0,c
  3673  000504  0EFF               	movlw	255
  3674  000506  200B               	addwfc	(??___fladd+2)^0,w,c
  3675  000508  6E03               	movwf	(___fladd@b+2)^0,c
  3676  00050A  0EFF               	movlw	255
  3677  00050C  200C               	addwfc	(??___fladd+3)^0,w,c
  3678  00050E  6E04               	movwf	(___fladd@b+3)^0,c
  3679  000510  0E80               	movlw	128
  3680  000512  1A0D               	xorwf	___fladd@signs^0,f,c
  3681  000514  6C10               	negf	___fladd@grs^0,c
  3682  000516  5010               	movf	___fladd@grs^0,w,c
  3683  000518  A4D8               	btfss	status,2,c
  3684  00051A  EF91  F002         	goto	u1441
  3685  00051E  EF93  F002         	goto	u1440
  3686  000522                     u1441:
  3687  000522  EFA3  F002         	goto	l1096
  3688  000526                     u1440:
  3689  000526  0E01               	movlw	1
  3690  000528  2601               	addwf	___fladd@b^0,f,c
  3691  00052A  0E00               	movlw	0
  3692  00052C  2202               	addwfc	(___fladd@b+1)^0,f,c
  3693  00052E  2203               	addwfc	(___fladd@b+2)^0,f,c
  3694  000530  2204               	addwfc	(___fladd@b+3)^0,f,c
  3695  000532  EFA3  F002         	goto	l1096
  3696  000536                     l2304:
  3697  000536  5005               	movf	___fladd@a^0,w,c
  3698  000538  5E01               	subwf	___fladd@b^0,f,c
  3699  00053A  5006               	movf	(___fladd@a+1)^0,w,c
  3700  00053C  5A02               	subwfb	(___fladd@b+1)^0,f,c
  3701  00053E  5007               	movf	(___fladd@a+2)^0,w,c
  3702  000540  5A03               	subwfb	(___fladd@b+2)^0,f,c
  3703  000542  5008               	movf	(___fladd@a+3)^0,w,c
  3704  000544  5A04               	subwfb	(___fladd@b+3)^0,f,c
  3705  000546                     l1096:
  3706  000546  5001               	movf	___fladd@b^0,w,c
  3707  000548  1002               	iorwf	(___fladd@b+1)^0,w,c
  3708  00054A  1003               	iorwf	(___fladd@b+2)^0,w,c
  3709  00054C  1004               	iorwf	(___fladd@b+3)^0,w,c
  3710  00054E  A4D8               	btfss	status,2,c
  3711  000550  EFAC  F002         	goto	u1451
  3712  000554  EFAE  F002         	goto	u1450
  3713  000558                     u1451:
  3714  000558  EFE3  F002         	goto	l2328
  3715  00055C                     u1450:
  3716  00055C  5010               	movf	___fladd@grs^0,w,c
  3717  00055E  A4D8               	btfss	status,2,c
  3718  000560  EFB4  F002         	goto	u1461
  3719  000564  EFB6  F002         	goto	u1460
  3720  000568                     u1461:
  3721  000568  EFE3  F002         	goto	l2328
  3722  00056C                     u1460:
  3723  00056C  0E00               	movlw	0
  3724  00056E  6E01               	movwf	?___fladd^0,c
  3725  000570  0E00               	movlw	0
  3726  000572  6E02               	movwf	(?___fladd+1)^0,c
  3727  000574  0E00               	movlw	0
  3728  000576  6E03               	movwf	(?___fladd+2)^0,c
  3729  000578  0E00               	movlw	0
  3730  00057A  6E04               	movwf	(?___fladd+3)^0,c
  3731  00057C  EF7E  F003         	goto	l1088
  3732  000580                     l2312:
  3733  000580  90D8               	bcf	status,0,c
  3734  000582  3601               	rlcf	___fladd@b^0,f,c
  3735  000584  3602               	rlcf	(___fladd@b+1)^0,f,c
  3736  000586  3603               	rlcf	(___fladd@b+2)^0,f,c
  3737  000588  3604               	rlcf	(___fladd@b+3)^0,f,c
  3738  00058A  AE10               	btfss	___fladd@grs^0,7,c
  3739  00058C  EFCA  F002         	goto	u1471
  3740  000590  EFCC  F002         	goto	u1470
  3741  000594                     u1471:
  3742  000594  EFCD  F002         	goto	l2318
  3743  000598                     u1470:
  3744  000598  8001               	bsf	___fladd@b^0,0,c
  3745  00059A                     l2318:
  3746  00059A  A010               	btfss	___fladd@grs^0,0,c
  3747  00059C  EFD2  F002         	goto	u1481
  3748  0005A0  EFD4  F002         	goto	u1480
  3749  0005A4                     u1481:
  3750  0005A4  EFD8  F002         	goto	l2322
  3751  0005A8                     u1480:
  3752  0005A8  80D8               	bsf	status,0,c
  3753  0005AA  3610               	rlcf	___fladd@grs^0,f,c
  3754  0005AC  EFDA  F002         	goto	l2324
  3755  0005B0                     l2322:
  3756  0005B0  90D8               	bcf	status,0,c
  3757  0005B2  3610               	rlcf	___fladd@grs^0,f,c
  3758  0005B4                     l2324:
  3759  0005B4  500F               	movf	___fladd@bexp^0,w,c
  3760  0005B6  B4D8               	btfsc	status,2,c
  3761  0005B8  EFE0  F002         	goto	u1491
  3762  0005BC  EFE2  F002         	goto	u1490
  3763  0005C0                     u1491:
  3764  0005C0  EFE3  F002         	goto	l2328
  3765  0005C4                     u1490:
  3766  0005C4  060F               	decf	___fladd@bexp^0,f,c
  3767  0005C6                     l2328:
  3768  0005C6  AE03               	btfss	(___fladd@b+2)^0,7,c
  3769  0005C8  EFE8  F002         	goto	u1501
  3770  0005CC  EFEA  F002         	goto	u1500
  3771  0005D0                     u1501:
  3772  0005D0  EFC0  F002         	goto	l2312
  3773  0005D4                     u1500:
  3774  0005D4                     l2330:
  3775  0005D4  0E00               	movlw	0
  3776  0005D6  6E0E               	movwf	___fladd@aexp^0,c
  3777  0005D8  AE10               	btfss	___fladd@grs^0,7,c
  3778  0005DA  EFF1  F002         	goto	u1511
  3779  0005DE  EFF3  F002         	goto	u1510
  3780  0005E2                     u1511:
  3781  0005E2  EF0B  F003         	goto	l1105
  3782  0005E6                     u1510:
  3783  0005E6  C010  F009         	movff	___fladd@grs,??___fladd
  3784  0005EA  0E7F               	movlw	127
  3785  0005EC  1609               	andwf	??___fladd^0,f,c
  3786  0005EE  B4D8               	btfsc	status,2,c
  3787  0005F0  EFFC  F002         	goto	u1521
  3788  0005F4  EFFE  F002         	goto	u1520
  3789  0005F8                     u1521:
  3790  0005F8  EF02  F003         	goto	l1106
  3791  0005FC                     u1520:
  3792  0005FC                     l2336:
  3793  0005FC  0E01               	movlw	1
  3794  0005FE  6E0E               	movwf	___fladd@aexp^0,c
  3795  000600  EF0B  F003         	goto	l1105
  3796  000604                     l1106:
  3797  000604  A001               	btfss	___fladd@b^0,0,c
  3798  000606  EF07  F003         	goto	u1531
  3799  00060A  EF09  F003         	goto	u1530
  3800  00060E                     u1531:
  3801  00060E  EF0B  F003         	goto	l1105
  3802  000612                     u1530:
  3803  000612  EFFE  F002         	goto	l2336
  3804  000616                     l1105:
  3805  000616  500E               	movf	___fladd@aexp^0,w,c
  3806  000618  B4D8               	btfsc	status,2,c
  3807  00061A  EF11  F003         	goto	u1541
  3808  00061E  EF13  F003         	goto	u1540
  3809  000622                     u1541:
  3810  000622  EF3E  F003         	goto	l2348
  3811  000626                     u1540:
  3812  000626  0E01               	movlw	1
  3813  000628  2601               	addwf	___fladd@b^0,f,c
  3814  00062A  0E00               	movlw	0
  3815  00062C  2202               	addwfc	(___fladd@b+1)^0,f,c
  3816  00062E  2203               	addwfc	(___fladd@b+2)^0,f,c
  3817  000630  2204               	addwfc	(___fladd@b+3)^0,f,c
  3818  000632  A004               	btfss	(___fladd@b+3)^0,0,c
  3819  000634  EF1E  F003         	goto	u1551
  3820  000638  EF20  F003         	goto	u1550
  3821  00063C                     u1551:
  3822  00063C  EF3E  F003         	goto	l2348
  3823  000640                     u1550:
  3824  000640  C001  F009         	movff	___fladd@b,??___fladd
  3825  000644  C002  F00A         	movff	___fladd@b+1,??___fladd+1
  3826  000648  C003  F00B         	movff	___fladd@b+2,??___fladd+2
  3827  00064C  C004  F00C         	movff	___fladd@b+3,??___fladd+3
  3828  000650  340C               	rlcf	(??___fladd+3)^0,w,c
  3829  000652  320C               	rrcf	(??___fladd+3)^0,f,c
  3830  000654  320B               	rrcf	(??___fladd+2)^0,f,c
  3831  000656  320A               	rrcf	(??___fladd+1)^0,f,c
  3832  000658  3209               	rrcf	??___fladd^0,f,c
  3833  00065A  C009  F001         	movff	??___fladd,___fladd@b
  3834  00065E  C00A  F002         	movff	??___fladd+1,___fladd@b+1
  3835  000662  C00B  F003         	movff	??___fladd+2,___fladd@b+2
  3836  000666  C00C  F004         	movff	??___fladd+3,___fladd@b+3
  3837  00066A  280F               	incf	___fladd@bexp^0,w,c
  3838  00066C  B4D8               	btfsc	status,2,c
  3839  00066E  EF3B  F003         	goto	u1561
  3840  000672  EF3D  F003         	goto	u1560
  3841  000676                     u1561:
  3842  000676  EF3E  F003         	goto	l2348
  3843  00067A                     u1560:
  3844  00067A  2A0F               	incf	___fladd@bexp^0,f,c
  3845  00067C                     l2348:
  3846  00067C  280F               	incf	___fladd@bexp^0,w,c
  3847  00067E  B4D8               	btfsc	status,2,c
  3848  000680  EF44  F003         	goto	u1571
  3849  000684  EF46  F003         	goto	u1570
  3850  000688                     u1571:
  3851  000688  EF4E  F003         	goto	l2352
  3852  00068C                     u1570:
  3853  00068C  500F               	movf	___fladd@bexp^0,w,c
  3854  00068E  A4D8               	btfss	status,2,c
  3855  000690  EF4C  F003         	goto	u1581
  3856  000694  EF4E  F003         	goto	u1580
  3857  000698                     u1581:
  3858  000698  EF60  F003         	goto	l2356
  3859  00069C                     u1580:
  3860  00069C                     l2352:
  3861  00069C  0E00               	movlw	0
  3862  00069E  6E01               	movwf	___fladd@b^0,c
  3863  0006A0  0E00               	movlw	0
  3864  0006A2  6E02               	movwf	(___fladd@b+1)^0,c
  3865  0006A4  0E00               	movlw	0
  3866  0006A6  6E03               	movwf	(___fladd@b+2)^0,c
  3867  0006A8  0E00               	movlw	0
  3868  0006AA  6E04               	movwf	(___fladd@b+3)^0,c
  3869  0006AC  500F               	movf	___fladd@bexp^0,w,c
  3870  0006AE  A4D8               	btfss	status,2,c
  3871  0006B0  EF5C  F003         	goto	u1591
  3872  0006B4  EF5E  F003         	goto	u1590
  3873  0006B8                     u1591:
  3874  0006B8  EF60  F003         	goto	l2356
  3875  0006BC                     u1590:
  3876  0006BC  0E00               	movlw	0
  3877  0006BE  6E0D               	movwf	___fladd@signs^0,c
  3878  0006C0                     l2356:
  3879  0006C0  A00F               	btfss	___fladd@bexp^0,0,c
  3880  0006C2  EF65  F003         	goto	u1601
  3881  0006C6  EF67  F003         	goto	u1600
  3882  0006CA                     u1601:
  3883  0006CA  EF6A  F003         	goto	l2360
  3884  0006CE                     u1600:
  3885  0006CE  8E03               	bsf	(___fladd@b+2)^0,7,c
  3886  0006D0  EF6B  F003         	goto	l2362
  3887  0006D4                     l2360:
  3888  0006D4  9E03               	bcf	(___fladd@b+2)^0,7,c
  3889  0006D6                     l2362:
  3890  0006D6  90D8               	bcf	status,0,c
  3891  0006D8  300F               	rrcf	___fladd@bexp^0,w,c
  3892  0006DA  6E04               	movwf	(___fladd@b+3)^0,c
  3893  0006DC  AE0D               	btfss	___fladd@signs^0,7,c
  3894  0006DE  EF73  F003         	goto	u1611
  3895  0006E2  EF75  F003         	goto	u1610
  3896  0006E6                     u1611:
  3897  0006E6  EF76  F003         	goto	l2368
  3898  0006EA                     u1610:
  3899  0006EA  8E04               	bsf	(___fladd@b+3)^0,7,c
  3900  0006EC                     l2368:
  3901  0006EC  C001  F001         	movff	___fladd@b,?___fladd
  3902  0006F0  C002  F002         	movff	___fladd@b+1,?___fladd+1
  3903  0006F4  C003  F003         	movff	___fladd@b+2,?___fladd+2
  3904  0006F8  C004  F004         	movff	___fladd@b+3,?___fladd+3
  3905  0006FC                     l1088:
  3906  0006FC  0012               	return		;funcret
  3907  0006FE                     __end_of___fladd:
  3908                           	opt callstack 0
  3909                           
  3910 ;; *************** function _TMR1_WriteTimer *****************
  3911 ;; Defined at:
  3912 ;;		line 114 in file "mcc_generated_files/tmr1.c"
  3913 ;; Parameters:    Size  Location     Type
  3914 ;;  timerVal        2    0[COMRAM] unsigned short 
  3915 ;; Auto vars:     Size  Location     Type
  3916 ;;		None
  3917 ;; Return value:  Size  Location     Type
  3918 ;;                  1    wreg      void 
  3919 ;; Registers used:
  3920 ;;		wreg, status,2
  3921 ;; Tracked objects:
  3922 ;;		On entry : 0/0
  3923 ;;		On exit  : 0/0
  3924 ;;		Unchanged: 0/0
  3925 ;; Data sizes:     COMRAM   BANK0   BANK1
  3926 ;;      Params:         2       0       0
  3927 ;;      Locals:         0       0       0
  3928 ;;      Temps:          0       0       0
  3929 ;;      Totals:         2       0       0
  3930 ;;Total ram usage:        2 bytes
  3931 ;; Hardware stack levels used:    1
  3932 ;; This function calls:
  3933 ;;		Nothing
  3934 ;; This function is called by:
  3935 ;;		_Get_Distance_Front
  3936 ;;		_Get_Distance_Rear
  3937 ;;		_TMR1_Reload
  3938 ;; This function uses a non-reentrant model
  3939 ;;
  3940                           
  3941                           	psect	text25
  3942  001526                     __ptext25:
  3943                           	opt callstack 0
  3944  001526                     _TMR1_WriteTimer:
  3945                           	opt callstack 29
  3946  001526                     
  3947                           ;mcc_generated_files/tmr1.c: 114: void TMR1_WriteTimer(uint16_t timerVal);mcc_generated_
      +                          files/tmr1.c: 115: {;mcc_generated_files/tmr1.c: 116:     if (T1CONbits.T1SYNC == 1)
  3948  001526  A4CD               	btfss	205,2,c	;volatile
  3949  001528  EF98  F00A         	goto	u1201
  3950  00152C  EF9A  F00A         	goto	u1200
  3951  001530                     u1201:
  3952  001530  EFA2  F00A         	goto	l2154
  3953  001534                     u1200:
  3954  001534                     
  3955                           ;mcc_generated_files/tmr1.c: 117:     {;mcc_generated_files/tmr1.c: 119:         T1CONbi
      +                          ts.TMR1ON = 0;
  3956  001534  90CD               	bcf	205,0,c	;volatile
  3957  001536                     
  3958                           ;mcc_generated_files/tmr1.c: 122:         TMR1H = (timerVal >> 8);
  3959  001536  5002               	movf	(TMR1_WriteTimer@timerVal+1)^0,w,c
  3960  001538  6ECF               	movwf	207,c	;volatile
  3961  00153A                     
  3962                           ;mcc_generated_files/tmr1.c: 123:         TMR1L = (uint8_t) timerVal;
  3963  00153A  C001  FFCE         	movff	TMR1_WriteTimer@timerVal,4046	;volatile
  3964  00153E                     
  3965                           ;mcc_generated_files/tmr1.c: 126:         T1CONbits.TMR1ON =1;
  3966  00153E  80CD               	bsf	205,0,c	;volatile
  3967                           
  3968                           ;mcc_generated_files/tmr1.c: 127:     }
  3969  001540  EFA6  F00A         	goto	l193
  3970  001544                     l2154:
  3971                           
  3972                           ;mcc_generated_files/tmr1.c: 129:     {;mcc_generated_files/tmr1.c: 131:         TMR1H =
      +                           (timerVal >> 8);
  3973  001544  5002               	movf	(TMR1_WriteTimer@timerVal+1)^0,w,c
  3974  001546  6ECF               	movwf	207,c	;volatile
  3975  001548                     
  3976                           ;mcc_generated_files/tmr1.c: 132:         TMR1L = (uint8_t) timerVal;
  3977  001548  C001  FFCE         	movff	TMR1_WriteTimer@timerVal,4046	;volatile
  3978  00154C                     l193:
  3979  00154C  0012               	return		;funcret
  3980  00154E                     __end_of_TMR1_WriteTimer:
  3981                           	opt callstack 0
  3982                           
  3983 ;; *************** function _TMR1_StopTimer *****************
  3984 ;; Defined at:
  3985 ;;		line 92 in file "mcc_generated_files/tmr1.c"
  3986 ;; Parameters:    Size  Location     Type
  3987 ;;		None
  3988 ;; Auto vars:     Size  Location     Type
  3989 ;;		None
  3990 ;; Return value:  Size  Location     Type
  3991 ;;                  1    wreg      void 
  3992 ;; Registers used:
  3993 ;;		None
  3994 ;; Tracked objects:
  3995 ;;		On entry : 0/0
  3996 ;;		On exit  : 0/0
  3997 ;;		Unchanged: 0/0
  3998 ;; Data sizes:     COMRAM   BANK0   BANK1
  3999 ;;      Params:         0       0       0
  4000 ;;      Locals:         0       0       0
  4001 ;;      Temps:          0       0       0
  4002 ;;      Totals:         0       0       0
  4003 ;;Total ram usage:        0 bytes
  4004 ;; Hardware stack levels used:    1
  4005 ;; This function calls:
  4006 ;;		Nothing
  4007 ;; This function is called by:
  4008 ;;		_Get_Distance_Front
  4009 ;;		_Get_Distance_Rear
  4010 ;; This function uses a non-reentrant model
  4011 ;;
  4012                           
  4013                           	psect	text26
  4014  0016AE                     __ptext26:
  4015                           	opt callstack 0
  4016  0016AE                     _TMR1_StopTimer:
  4017                           	opt callstack 29
  4018  0016AE                     
  4019                           ;mcc_generated_files/tmr1.c: 95:     T1CONbits.TMR1ON = 0;
  4020  0016AE  90CD               	bcf	205,0,c	;volatile
  4021  0016B0  0012               	return		;funcret
  4022  0016B2                     __end_of_TMR1_StopTimer:
  4023                           	opt callstack 0
  4024                           
  4025 ;; *************** function _TMR1_StartTimer *****************
  4026 ;; Defined at:
  4027 ;;		line 86 in file "mcc_generated_files/tmr1.c"
  4028 ;; Parameters:    Size  Location     Type
  4029 ;;		None
  4030 ;; Auto vars:     Size  Location     Type
  4031 ;;		None
  4032 ;; Return value:  Size  Location     Type
  4033 ;;                  1    wreg      void 
  4034 ;; Registers used:
  4035 ;;		None
  4036 ;; Tracked objects:
  4037 ;;		On entry : 0/0
  4038 ;;		On exit  : 0/0
  4039 ;;		Unchanged: 0/0
  4040 ;; Data sizes:     COMRAM   BANK0   BANK1
  4041 ;;      Params:         0       0       0
  4042 ;;      Locals:         0       0       0
  4043 ;;      Temps:          0       0       0
  4044 ;;      Totals:         0       0       0
  4045 ;;Total ram usage:        0 bytes
  4046 ;; Hardware stack levels used:    1
  4047 ;; This function calls:
  4048 ;;		Nothing
  4049 ;; This function is called by:
  4050 ;;		_Get_Distance_Front
  4051 ;;		_Get_Distance_Rear
  4052 ;; This function uses a non-reentrant model
  4053 ;;
  4054                           
  4055                           	psect	text27
  4056  0016B2                     __ptext27:
  4057                           	opt callstack 0
  4058  0016B2                     _TMR1_StartTimer:
  4059                           	opt callstack 29
  4060  0016B2                     
  4061                           ;mcc_generated_files/tmr1.c: 89:     T1CONbits.TMR1ON = 1;
  4062  0016B2  80CD               	bsf	205,0,c	;volatile
  4063  0016B4  0012               	return		;funcret
  4064  0016B6                     __end_of_TMR1_StartTimer:
  4065                           	opt callstack 0
  4066                           
  4067 ;; *************** function _TMR1_ReadTimer *****************
  4068 ;; Defined at:
  4069 ;;		line 98 in file "mcc_generated_files/tmr1.c"
  4070 ;; Parameters:    Size  Location     Type
  4071 ;;		None
  4072 ;; Auto vars:     Size  Location     Type
  4073 ;;  readVal         2    4[COMRAM] unsigned short 
  4074 ;;  readValLow      1    7[COMRAM] unsigned char 
  4075 ;;  readValHigh     1    6[COMRAM] unsigned char 
  4076 ;; Return value:  Size  Location     Type
  4077 ;;                  2    0[COMRAM] unsigned short 
  4078 ;; Registers used:
  4079 ;;		wreg, status,2
  4080 ;; Tracked objects:
  4081 ;;		On entry : 0/0
  4082 ;;		On exit  : 0/0
  4083 ;;		Unchanged: 0/0
  4084 ;; Data sizes:     COMRAM   BANK0   BANK1
  4085 ;;      Params:         2       0       0
  4086 ;;      Locals:         4       0       0
  4087 ;;      Temps:          2       0       0
  4088 ;;      Totals:         8       0       0
  4089 ;;Total ram usage:        8 bytes
  4090 ;; Hardware stack levels used:    1
  4091 ;; This function calls:
  4092 ;;		Nothing
  4093 ;; This function is called by:
  4094 ;;		_Get_Distance_Front
  4095 ;;		_Get_Distance_Rear
  4096 ;; This function uses a non-reentrant model
  4097 ;;
  4098                           
  4099                           	psect	text28
  4100  001596                     __ptext28:
  4101                           	opt callstack 0
  4102  001596                     _TMR1_ReadTimer:
  4103                           	opt callstack 29
  4104  001596                     
  4105                           ;mcc_generated_files/tmr1.c: 100:     uint16_t readVal;;mcc_generated_files/tmr1.c: 101:
      +                               uint8_t readValHigh;;mcc_generated_files/tmr1.c: 102:     uint8_t readValLow;;mcc_g
      +                          enerated_files/tmr1.c: 104:     T1CONbits.T1RD16 = 1;
  4106  001596  82CD               	bsf	205,1,c	;volatile
  4107                           
  4108                           ;mcc_generated_files/tmr1.c: 106:     readValLow = TMR1L;
  4109  001598  CFCE F008          	movff	4046,TMR1_ReadTimer@readValLow	;volatile
  4110                           
  4111                           ;mcc_generated_files/tmr1.c: 107:     readValHigh = TMR1H;
  4112  00159C  CFCF F007          	movff	4047,TMR1_ReadTimer@readValHigh	;volatile
  4113  0015A0                     
  4114                           ;mcc_generated_files/tmr1.c: 109:     readVal = ((uint16_t)readValHigh << 8) | readValLo
      +                          w;
  4115  0015A0  5007               	movf	TMR1_ReadTimer@readValHigh^0,w,c
  4116  0015A2  6E03               	movwf	??_TMR1_ReadTimer^0,c
  4117  0015A4  5008               	movf	TMR1_ReadTimer@readValLow^0,w,c
  4118  0015A6  6E05               	movwf	TMR1_ReadTimer@readVal^0,c
  4119  0015A8  C003  F006         	movff	??_TMR1_ReadTimer,TMR1_ReadTimer@readVal+1
  4120  0015AC                     
  4121                           ;mcc_generated_files/tmr1.c: 111:     return readVal;
  4122  0015AC  C005  F001         	movff	TMR1_ReadTimer@readVal,?_TMR1_ReadTimer
  4123  0015B0  C006  F002         	movff	TMR1_ReadTimer@readVal+1,?_TMR1_ReadTimer+1
  4124  0015B4  0012               	return		;funcret
  4125  0015B6                     __end_of_TMR1_ReadTimer:
  4126                           	opt callstack 0
  4127                           
  4128 ;; *************** function _EUSART1_is_rx_ready *****************
  4129 ;; Defined at:
  4130 ;;		line 99 in file "mcc_generated_files/eusart1.c"
  4131 ;; Parameters:    Size  Location     Type
  4132 ;;		None
  4133 ;; Auto vars:     Size  Location     Type
  4134 ;;		None
  4135 ;; Return value:  Size  Location     Type
  4136 ;;                  1    wreg      _Bool 
  4137 ;; Registers used:
  4138 ;;		wreg
  4139 ;; Tracked objects:
  4140 ;;		On entry : 0/0
  4141 ;;		On exit  : 0/0
  4142 ;;		Unchanged: 0/0
  4143 ;; Data sizes:     COMRAM   BANK0   BANK1
  4144 ;;      Params:         0       0       0
  4145 ;;      Locals:         0       0       0
  4146 ;;      Temps:          0       0       0
  4147 ;;      Totals:         0       0       0
  4148 ;;Total ram usage:        0 bytes
  4149 ;; Hardware stack levels used:    1
  4150 ;; This function calls:
  4151 ;;		Nothing
  4152 ;; This function is called by:
  4153 ;;		_main
  4154 ;; This function uses a non-reentrant model
  4155 ;;
  4156                           
  4157                           	psect	text29
  4158  0015FE                     __ptext29:
  4159                           	opt callstack 0
  4160  0015FE                     _EUSART1_is_rx_ready:
  4161                           	opt callstack 30
  4162  0015FE                     
  4163                           ;mcc_generated_files/eusart1.c: 101:     return (_Bool)(PIR1bits.RC1IF);
  4164  0015FE  BA9E               	btfsc	158,5,c	;volatile
  4165  001600  EF04  F00B         	goto	u821
  4166  001604  EF07  F00B         	goto	u820
  4167  001608                     u821:
  4168  001608  0E01               	movlw	1
  4169  00160A  EF08  F00B         	goto	u826
  4170  00160E                     u820:
  4171  00160E  0E00               	movlw	0
  4172  001610                     u826:
  4173  001610  0012               	return		;funcret
  4174  001612                     __end_of_EUSART1_is_rx_ready:
  4175                           	opt callstack 0
  4176                           
  4177 ;; *************** function _EUSART1_Read *****************
  4178 ;; Defined at:
  4179 ;;		line 113 in file "mcc_generated_files/eusart1.c"
  4180 ;; Parameters:    Size  Location     Type
  4181 ;;		None
  4182 ;; Auto vars:     Size  Location     Type
  4183 ;;		None
  4184 ;; Return value:  Size  Location     Type
  4185 ;;                  1    wreg      unsigned char 
  4186 ;; Registers used:
  4187 ;;		wreg, status,2
  4188 ;; Tracked objects:
  4189 ;;		On entry : 0/0
  4190 ;;		On exit  : 0/0
  4191 ;;		Unchanged: 0/0
  4192 ;; Data sizes:     COMRAM   BANK0   BANK1
  4193 ;;      Params:         0       0       0
  4194 ;;      Locals:         0       0       0
  4195 ;;      Temps:          0       0       0
  4196 ;;      Totals:         0       0       0
  4197 ;;Total ram usage:        0 bytes
  4198 ;; Hardware stack levels used:    1
  4199 ;; This function calls:
  4200 ;;		Nothing
  4201 ;; This function is called by:
  4202 ;;		_main
  4203 ;;		_getch
  4204 ;;		__esp8266_waitFor
  4205 ;; This function uses a non-reentrant model
  4206 ;;
  4207                           
  4208                           	psect	text30
  4209  00154E                     __ptext30:
  4210                           	opt callstack 0
  4211  00154E                     _EUSART1_Read:
  4212                           	opt callstack 30
  4213  00154E                     l60:
  4214                           
  4215                           ;mcc_generated_files/eusart1.c: 115:     while(!PIR1bits.RC1IF)
  4216  00154E  AA9E               	btfss	158,5,c	;volatile
  4217  001550  EFAC  F00A         	goto	u831
  4218  001554  EFAE  F00A         	goto	u830
  4219  001558                     u831:
  4220  001558  EFA7  F00A         	goto	l60
  4221  00155C                     u830:
  4222  00155C                     
  4223                           ;mcc_generated_files/eusart1.c: 119:     eusart1RxLastError.status = 0;
  4224  00155C  0E00               	movlw	0
  4225  00155E  6E4C               	movwf	_eusart1RxLastError^0,c	;volatile
  4226  001560                     
  4227                           ;mcc_generated_files/eusart1.c: 121:     if(1 == RCSTA1bits.OERR)
  4228  001560  A2AB               	btfss	171,1,c	;volatile
  4229  001562  EFB5  F00A         	goto	u841
  4230  001566  EFB7  F00A         	goto	u840
  4231  00156A                     u841:
  4232  00156A  EFB9  F00A         	goto	l1770
  4233  00156E                     u840:
  4234  00156E                     
  4235                           ;mcc_generated_files/eusart1.c: 122:     {;mcc_generated_files/eusart1.c: 125:         R
      +                          CSTA1bits.CREN = 0;
  4236  00156E  98AB               	bcf	171,4,c	;volatile
  4237                           
  4238                           ;mcc_generated_files/eusart1.c: 126:         RCSTA1bits.CREN = 1;
  4239  001570  88AB               	bsf	171,4,c	;volatile
  4240  001572                     l1770:
  4241                           
  4242                           ;mcc_generated_files/eusart1.c: 129:     return RCREG1;
  4243  001572  50AE               	movf	174,w,c	;volatile
  4244  001574  0012               	return		;funcret
  4245  001576                     __end_of_EUSART1_Read:
  4246                           	opt callstack 0
  4247                           
  4248 ;; *************** function _Chair_Position *****************
  4249 ;; Defined at:
  4250 ;;		line 116 in file "./Motors.h"
  4251 ;; Parameters:    Size  Location     Type
  4252 ;;  Command         2    5[COMRAM] PTR unsigned char 
  4253 ;;		 -> STR_15(5), STR_14(5), STR_13(5), STR_12(5), 
  4254 ;;		 -> STR_11(6), STR_10(5), STR_9(5), STR_8(8), 
  4255 ;; Auto vars:     Size  Location     Type
  4256 ;;		None
  4257 ;; Return value:  Size  Location     Type
  4258 ;;                  2    5[COMRAM] int 
  4259 ;; Registers used:
  4260 ;;		wreg, status,2, status,0, tblptrl, tblptrh, tblptru, cstack
  4261 ;; Tracked objects:
  4262 ;;		On entry : 0/0
  4263 ;;		On exit  : 0/0
  4264 ;;		Unchanged: 0/0
  4265 ;; Data sizes:     COMRAM   BANK0   BANK1
  4266 ;;      Params:         2       0       0
  4267 ;;      Locals:         0       0       0
  4268 ;;      Temps:          0       0       0
  4269 ;;      Totals:         2       0       0
  4270 ;;Total ram usage:        2 bytes
  4271 ;; Hardware stack levels used:    1
  4272 ;; Hardware stack levels required when called:    2
  4273 ;; This function calls:
  4274 ;;		_Move_Back
  4275 ;;		_Move_Forward
  4276 ;;		_Move_Right
  4277 ;;		_Move_left
  4278 ;;		_Stop
  4279 ;;		_strcmp
  4280 ;; This function is called by:
  4281 ;;		_main
  4282 ;; This function uses a non-reentrant model
  4283 ;;
  4284                           
  4285                           	psect	text31
  4286  001112                     __ptext31:
  4287                           	opt callstack 0
  4288  001112                     _Chair_Position:
  4289                           	opt callstack 28
  4290  001112                     
  4291                           ;./Motors.h: 116:     int Chair_Position(char Command[] );./Motors.h: 117:     {;./Motor
      +                          s.h: 118:         if(strcmp(Command,"FORWARD")==0)
  4292  001112  C006  F001         	movff	Chair_Position@Command,strcmp@l
  4293  001116  C007  F002         	movff	Chair_Position@Command+1,strcmp@l+1
  4294  00111A  0E1F               	movlw	low STR_1
  4295  00111C  6E03               	movwf	strcmp@r^0,c
  4296  00111E  0E02               	movlw	high STR_1
  4297  001120  6E04               	movwf	(strcmp@r+1)^0,c
  4298  001122  EC39  F009         	call	_strcmp	;wreg free
  4299  001126  5001               	movf	?_strcmp^0,w,c
  4300  001128  1002               	iorwf	(?_strcmp+1)^0,w,c
  4301  00112A  A4D8               	btfss	status,2,c
  4302  00112C  EF9A  F008         	goto	u1951
  4303  001130  EF9C  F008         	goto	u1950
  4304  001134                     u1951:
  4305  001134  EFA0  F008         	goto	l2570
  4306  001138                     u1950:
  4307  001138                     
  4308                           ;./Motors.h: 119:         {;./Motors.h: 120:             Move_Forward();
  4309  001138  EC3D  F00B         	call	_Move_Forward	;wreg free
  4310  00113C  EFFA  F008         	goto	l392
  4311  001140                     l2570:
  4312  001140  C006  F001         	movff	Chair_Position@Command,strcmp@l
  4313  001144  C007  F002         	movff	Chair_Position@Command+1,strcmp@l+1
  4314  001148  0E2D               	movlw	low STR_2
  4315  00114A  6E03               	movwf	strcmp@r^0,c
  4316  00114C  0E02               	movlw	high STR_2
  4317  00114E  6E04               	movwf	(strcmp@r+1)^0,c
  4318  001150  EC39  F009         	call	_strcmp	;wreg free
  4319  001154  5001               	movf	?_strcmp^0,w,c
  4320  001156  1002               	iorwf	(?_strcmp+1)^0,w,c
  4321  001158  A4D8               	btfss	status,2,c
  4322  00115A  EFB1  F008         	goto	u1961
  4323  00115E  EFB3  F008         	goto	u1960
  4324  001162                     u1961:
  4325  001162  EFB7  F008         	goto	l2578
  4326  001166                     u1960:
  4327  001166                     
  4328                           ;./Motors.h: 125:         {;./Motors.h: 126:              Move_Back();
  4329  001166  EC42  F00B         	call	_Move_Back	;wreg free
  4330  00116A  EFFA  F008         	goto	l392
  4331  00116E                     l2578:
  4332  00116E  C006  F001         	movff	Chair_Position@Command,strcmp@l
  4333  001172  C007  F002         	movff	Chair_Position@Command+1,strcmp@l+1
  4334  001176  0E37               	movlw	low STR_3
  4335  001178  6E03               	movwf	strcmp@r^0,c
  4336  00117A  0E02               	movlw	high STR_3
  4337  00117C  6E04               	movwf	(strcmp@r+1)^0,c
  4338  00117E  EC39  F009         	call	_strcmp	;wreg free
  4339  001182  5001               	movf	?_strcmp^0,w,c
  4340  001184  1002               	iorwf	(?_strcmp+1)^0,w,c
  4341  001186  A4D8               	btfss	status,2,c
  4342  001188  EFC8  F008         	goto	u1971
  4343  00118C  EFCA  F008         	goto	u1970
  4344  001190                     u1971:
  4345  001190  EFCE  F008         	goto	l2586
  4346  001194                     u1970:
  4347  001194                     
  4348                           ;./Motors.h: 131:         {;./Motors.h: 132:             Move_left();
  4349  001194  EC33  F00B         	call	_Move_left	;wreg free
  4350  001198  EFFA  F008         	goto	l392
  4351  00119C                     l2586:
  4352  00119C  C006  F001         	movff	Chair_Position@Command,strcmp@l
  4353  0011A0  C007  F002         	movff	Chair_Position@Command+1,strcmp@l+1
  4354  0011A4  0E27               	movlw	low STR_4
  4355  0011A6  6E03               	movwf	strcmp@r^0,c
  4356  0011A8  0E02               	movlw	high STR_4
  4357  0011AA  6E04               	movwf	(strcmp@r+1)^0,c
  4358  0011AC  EC39  F009         	call	_strcmp	;wreg free
  4359  0011B0  5001               	movf	?_strcmp^0,w,c
  4360  0011B2  1002               	iorwf	(?_strcmp+1)^0,w,c
  4361  0011B4  A4D8               	btfss	status,2,c
  4362  0011B6  EFDF  F008         	goto	u1981
  4363  0011BA  EFE1  F008         	goto	u1980
  4364  0011BE                     u1981:
  4365  0011BE  EFE5  F008         	goto	l2594
  4366  0011C2                     u1980:
  4367  0011C2                     
  4368                           ;./Motors.h: 136:         {;./Motors.h: 137:             Move_Right();
  4369  0011C2  EC38  F00B         	call	_Move_Right	;wreg free
  4370  0011C6  EFFA  F008         	goto	l392
  4371  0011CA                     l2594:
  4372  0011CA  C006  F001         	movff	Chair_Position@Command,strcmp@l
  4373  0011CE  C007  F002         	movff	Chair_Position@Command+1,strcmp@l+1
  4374  0011D2  0E32               	movlw	low STR_5
  4375  0011D4  6E03               	movwf	strcmp@r^0,c
  4376  0011D6  0E02               	movlw	high STR_5
  4377  0011D8  6E04               	movwf	(strcmp@r+1)^0,c
  4378  0011DA  EC39  F009         	call	_strcmp	;wreg free
  4379  0011DE  5001               	movf	?_strcmp^0,w,c
  4380  0011E0  1002               	iorwf	(?_strcmp+1)^0,w,c
  4381  0011E2  A4D8               	btfss	status,2,c
  4382  0011E4  EFF6  F008         	goto	u1991
  4383  0011E8  EFF8  F008         	goto	u1990
  4384  0011EC                     u1991:
  4385  0011EC  EFFA  F008         	goto	l392
  4386  0011F0                     u1990:
  4387  0011F0                     
  4388                           ;./Motors.h: 142:         {;./Motors.h: 143:             Stop();
  4389  0011F0  EC2E  F00B         	call	_Stop	;wreg free
  4390  0011F4                     l392:
  4391  0011F4  0012               	return		;funcret
  4392  0011F6                     __end_of_Chair_Position:
  4393                           	opt callstack 0
  4394                           
  4395 ;; *************** function _strcmp *****************
  4396 ;; Defined at:
  4397 ;;		line 3 in file "C:\Program Files (x86)\Microchip\xc8\v2.10\pic\sources\c99\common\strcmp.c"
  4398 ;; Parameters:    Size  Location     Type
  4399 ;;  l               2    0[COMRAM] PTR const unsigned char 
  4400 ;;		 -> STR_15(5), STR_14(5), STR_13(5), STR_12(5), 
  4401 ;;		 -> STR_11(6), STR_10(5), STR_9(5), STR_8(8), 
  4402 ;;  r               2    2[COMRAM] PTR const unsigned char 
  4403 ;;		 -> STR_5(5), STR_4(6), STR_3(5), STR_2(5), 
  4404 ;;		 -> STR_1(8), 
  4405 ;; Auto vars:     Size  Location     Type
  4406 ;;		None
  4407 ;; Return value:  Size  Location     Type
  4408 ;;                  2    0[COMRAM] int 
  4409 ;; Registers used:
  4410 ;;		wreg, status,2, status,0, tblptrl, tblptrh, tblptru
  4411 ;; Tracked objects:
  4412 ;;		On entry : 0/0
  4413 ;;		On exit  : 0/0
  4414 ;;		Unchanged: 0/0
  4415 ;; Data sizes:     COMRAM   BANK0   BANK1
  4416 ;;      Params:         4       0       0
  4417 ;;      Locals:         0       0       0
  4418 ;;      Temps:          1       0       0
  4419 ;;      Totals:         5       0       0
  4420 ;;Total ram usage:        5 bytes
  4421 ;; Hardware stack levels used:    1
  4422 ;; This function calls:
  4423 ;;		Nothing
  4424 ;; This function is called by:
  4425 ;;		_Chair_Position
  4426 ;; This function uses a non-reentrant model
  4427 ;;
  4428                           
  4429                           	psect	text32
  4430  001272                     __ptext32:
  4431                           	opt callstack 0
  4432  001272                     _strcmp:
  4433                           	opt callstack 29
  4434  001272  EF3F  F009         	goto	l2162
  4435  001276                     l2160:
  4436  001276  4A01               	infsnz	strcmp@l^0,f,c
  4437  001278  2A02               	incf	(strcmp@l+1)^0,f,c
  4438  00127A  4A03               	infsnz	strcmp@r^0,f,c
  4439  00127C  2A04               	incf	(strcmp@r+1)^0,f,c
  4440  00127E                     l2162:
  4441  00127E  C001  FFF6         	movff	strcmp@l,tblptrl
  4442  001282  C002  FFF7         	movff	strcmp@l+1,tblptrh
  4443  001286                     	if	0	;tblptru may be non-zero
  4444  001286                     	endif
  4445  001286                     	if	0	;tblptru may be non-zero
  4446  001286                     	endif
  4447  001286  0008               	tblrd		*
  4448  001288  CFF5 F005          	movff	tablat,??_strcmp
  4449  00128C  C003  FFF6         	movff	strcmp@r,tblptrl
  4450  001290  C004  FFF7         	movff	strcmp@r+1,tblptrh
  4451  001294                     	if	0	;tblptru may be non-zero
  4452  001294                     	endif
  4453  001294                     	if	0	;tblptru may be non-zero
  4454  001294                     	endif
  4455  001294  0008               	tblrd		*
  4456  001296  50F5               	movf	tablat,w,c
  4457  001298  1805               	xorwf	??_strcmp^0,w,c
  4458  00129A  A4D8               	btfss	status,2,c
  4459  00129C  EF52  F009         	goto	u1211
  4460  0012A0  EF54  F009         	goto	u1210
  4461  0012A4                     u1211:
  4462  0012A4  EF62  F009         	goto	l2166
  4463  0012A8                     u1210:
  4464  0012A8  C001  FFF6         	movff	strcmp@l,tblptrl
  4465  0012AC  C002  FFF7         	movff	strcmp@l+1,tblptrh
  4466  0012B0                     	if	0	;tblptru may be non-zero
  4467  0012B0                     	endif
  4468  0012B0                     	if	0	;tblptru may be non-zero
  4469  0012B0                     	endif
  4470  0012B0  0008               	tblrd		*
  4471  0012B2  50F5               	movf	tablat,w,c
  4472  0012B4  0900               	iorlw	0
  4473  0012B6  A4D8               	btfss	status,2,c
  4474  0012B8  EF60  F009         	goto	u1221
  4475  0012BC  EF62  F009         	goto	u1220
  4476  0012C0                     u1221:
  4477  0012C0  EF3B  F009         	goto	l2160
  4478  0012C4                     u1220:
  4479  0012C4                     l2166:
  4480  0012C4  C001  FFF6         	movff	strcmp@l,tblptrl
  4481  0012C8  C002  FFF7         	movff	strcmp@l+1,tblptrh
  4482  0012CC                     	if	0	;tblptru may be non-zero
  4483  0012CC                     	endif
  4484  0012CC                     	if	0	;tblptru may be non-zero
  4485  0012CC                     	endif
  4486  0012CC  0008               	tblrd		*
  4487  0012CE  CFF5 F005          	movff	tablat,??_strcmp
  4488  0012D2  C003  FFF6         	movff	strcmp@r,tblptrl
  4489  0012D6  C004  FFF7         	movff	strcmp@r+1,tblptrh
  4490  0012DA                     	if	0	;tblptru may be non-zero
  4491  0012DA                     	endif
  4492  0012DA                     	if	0	;tblptru may be non-zero
  4493  0012DA                     	endif
  4494  0012DA  0008               	tblrd		*
  4495  0012DC  50F5               	movf	tablat,w,c
  4496  0012DE  5C05               	subwf	??_strcmp^0,w,c
  4497  0012E0  6E01               	movwf	?_strcmp^0,c
  4498  0012E2  6A02               	clrf	(?_strcmp+1)^0,c
  4499  0012E4  A0D8               	btfss	status,0,c
  4500  0012E6  0602               	decf	(?_strcmp+1)^0,f,c
  4501  0012E8  0012               	return		;funcret
  4502  0012EA                     __end_of_strcmp:
  4503                           	opt callstack 0
  4504                           
  4505 ;; *************** function _Stop *****************
  4506 ;; Defined at:
  4507 ;;		line 98 in file "./Motors.h"
  4508 ;; Parameters:    Size  Location     Type
  4509 ;;		None
  4510 ;; Auto vars:     Size  Location     Type
  4511 ;;		None
  4512 ;; Return value:  Size  Location     Type
  4513 ;;                  1    wreg      void 
  4514 ;; Registers used:
  4515 ;;		cstack
  4516 ;; Tracked objects:
  4517 ;;		On entry : 0/0
  4518 ;;		On exit  : 0/0
  4519 ;;		Unchanged: 0/0
  4520 ;; Data sizes:     COMRAM   BANK0   BANK1
  4521 ;;      Params:         0       0       0
  4522 ;;      Locals:         0       0       0
  4523 ;;      Temps:          0       0       0
  4524 ;;      Totals:         0       0       0
  4525 ;;Total ram usage:        0 bytes
  4526 ;; Hardware stack levels used:    1
  4527 ;; Hardware stack levels required when called:    1
  4528 ;; This function calls:
  4529 ;;		_Leftwheel_Stop
  4530 ;;		_Rightwheel_Stop
  4531 ;; This function is called by:
  4532 ;;		_Chair_Position
  4533 ;; This function uses a non-reentrant model
  4534 ;;
  4535                           
  4536                           	psect	text33
  4537  00165C                     __ptext33:
  4538                           	opt callstack 0
  4539  00165C                     _Stop:
  4540                           	opt callstack 28
  4541  00165C                     
  4542                           ;./Motors.h: 99:           Leftwheel_Stop();
  4543  00165C  EC5D  F00B         	call	_Leftwheel_Stop	;wreg free
  4544                           
  4545                           ;./Motors.h: 100:           Rightwheel_Stop();
  4546  001660  EC5B  F00B         	call	_Rightwheel_Stop	;wreg free
  4547  001664  0012               	return		;funcret
  4548  001666                     __end_of_Stop:
  4549                           	opt callstack 0
  4550                           
  4551 ;; *************** function _Move_left *****************
  4552 ;; Defined at:
  4553 ;;		line 82 in file "./Motors.h"
  4554 ;; Parameters:    Size  Location     Type
  4555 ;;		None
  4556 ;; Auto vars:     Size  Location     Type
  4557 ;;		None
  4558 ;; Return value:  Size  Location     Type
  4559 ;;                  1    wreg      void 
  4560 ;; Registers used:
  4561 ;;		cstack
  4562 ;; Tracked objects:
  4563 ;;		On entry : 0/0
  4564 ;;		On exit  : 0/0
  4565 ;;		Unchanged: 0/0
  4566 ;; Data sizes:     COMRAM   BANK0   BANK1
  4567 ;;      Params:         0       0       0
  4568 ;;      Locals:         0       0       0
  4569 ;;      Temps:          0       0       0
  4570 ;;      Totals:         0       0       0
  4571 ;;Total ram usage:        0 bytes
  4572 ;; Hardware stack levels used:    1
  4573 ;; Hardware stack levels required when called:    1
  4574 ;; This function calls:
  4575 ;;		_Leftwheel_Forward
  4576 ;;		_Rightwheel_Stop
  4577 ;; This function is called by:
  4578 ;;		_Chair_Position
  4579 ;; This function uses a non-reentrant model
  4580 ;;
  4581                           
  4582                           	psect	text34
  4583  001666                     __ptext34:
  4584                           	opt callstack 0
  4585  001666                     _Move_left:
  4586                           	opt callstack 28
  4587  001666                     
  4588                           ;./Motors.h: 83:         Leftwheel_Forward();
  4589  001666  EC4B  F00B         	call	_Leftwheel_Forward	;wreg free
  4590                           
  4591                           ;./Motors.h: 84:         Rightwheel_Stop();
  4592  00166A  EC5B  F00B         	call	_Rightwheel_Stop	;wreg free
  4593  00166E  0012               	return		;funcret
  4594  001670                     __end_of_Move_left:
  4595                           	opt callstack 0
  4596                           
  4597 ;; *************** function _Rightwheel_Stop *****************
  4598 ;; Defined at:
  4599 ;;		line 60 in file "./Motors.h"
  4600 ;; Parameters:    Size  Location     Type
  4601 ;;		None
  4602 ;; Auto vars:     Size  Location     Type
  4603 ;;		None
  4604 ;; Return value:  Size  Location     Type
  4605 ;;                  1    wreg      void 
  4606 ;; Registers used:
  4607 ;;		None
  4608 ;; Tracked objects:
  4609 ;;		On entry : 0/0
  4610 ;;		On exit  : 0/0
  4611 ;;		Unchanged: 0/0
  4612 ;; Data sizes:     COMRAM   BANK0   BANK1
  4613 ;;      Params:         0       0       0
  4614 ;;      Locals:         0       0       0
  4615 ;;      Temps:          0       0       0
  4616 ;;      Totals:         0       0       0
  4617 ;;Total ram usage:        0 bytes
  4618 ;; Hardware stack levels used:    1
  4619 ;; This function calls:
  4620 ;;		Nothing
  4621 ;; This function is called by:
  4622 ;;		_Move_left
  4623 ;;		_Stop
  4624 ;; This function uses a non-reentrant model
  4625 ;;
  4626                           
  4627                           	psect	text35
  4628  0016B6                     __ptext35:
  4629                           	opt callstack 0
  4630  0016B6                     _Rightwheel_Stop:
  4631                           	opt callstack 28
  4632  0016B6  908D               	bcf	141,0,c	;volatile
  4633  0016B8  0012               	return		;funcret
  4634  0016BA                     __end_of_Rightwheel_Stop:
  4635                           	opt callstack 0
  4636                           
  4637 ;; *************** function _Move_Right *****************
  4638 ;; Defined at:
  4639 ;;		line 90 in file "./Motors.h"
  4640 ;; Parameters:    Size  Location     Type
  4641 ;;		None
  4642 ;; Auto vars:     Size  Location     Type
  4643 ;;		None
  4644 ;; Return value:  Size  Location     Type
  4645 ;;                  1    wreg      void 
  4646 ;; Registers used:
  4647 ;;		cstack
  4648 ;; Tracked objects:
  4649 ;;		On entry : 0/0
  4650 ;;		On exit  : 0/0
  4651 ;;		Unchanged: 0/0
  4652 ;; Data sizes:     COMRAM   BANK0   BANK1
  4653 ;;      Params:         0       0       0
  4654 ;;      Locals:         0       0       0
  4655 ;;      Temps:          0       0       0
  4656 ;;      Totals:         0       0       0
  4657 ;;Total ram usage:        0 bytes
  4658 ;; Hardware stack levels used:    1
  4659 ;; Hardware stack levels required when called:    1
  4660 ;; This function calls:
  4661 ;;		_Leftwheel_Stop
  4662 ;;		_Rightwheel_Forward
  4663 ;; This function is called by:
  4664 ;;		_Chair_Position
  4665 ;; This function uses a non-reentrant model
  4666 ;;
  4667                           
  4668                           	psect	text36
  4669  001670                     __ptext36:
  4670                           	opt callstack 0
  4671  001670                     _Move_Right:
  4672                           	opt callstack 28
  4673  001670                     
  4674                           ;./Motors.h: 91:         Leftwheel_Stop();
  4675  001670  EC5D  F00B         	call	_Leftwheel_Stop	;wreg free
  4676                           
  4677                           ;./Motors.h: 92:         Rightwheel_Forward();
  4678  001674  EC47  F00B         	call	_Rightwheel_Forward	;wreg free
  4679  001678  0012               	return		;funcret
  4680  00167A                     __end_of_Move_Right:
  4681                           	opt callstack 0
  4682                           
  4683 ;; *************** function _Leftwheel_Stop *****************
  4684 ;; Defined at:
  4685 ;;		line 53 in file "./Motors.h"
  4686 ;; Parameters:    Size  Location     Type
  4687 ;;		None
  4688 ;; Auto vars:     Size  Location     Type
  4689 ;;		None
  4690 ;; Return value:  Size  Location     Type
  4691 ;;                  1    wreg      void 
  4692 ;; Registers used:
  4693 ;;		None
  4694 ;; Tracked objects:
  4695 ;;		On entry : 0/0
  4696 ;;		On exit  : 0/0
  4697 ;;		Unchanged: 0/0
  4698 ;; Data sizes:     COMRAM   BANK0   BANK1
  4699 ;;      Params:         0       0       0
  4700 ;;      Locals:         0       0       0
  4701 ;;      Temps:          0       0       0
  4702 ;;      Totals:         0       0       0
  4703 ;;Total ram usage:        0 bytes
  4704 ;; Hardware stack levels used:    1
  4705 ;; This function calls:
  4706 ;;		Nothing
  4707 ;; This function is called by:
  4708 ;;		_Move_Right
  4709 ;;		_Stop
  4710 ;; This function uses a non-reentrant model
  4711 ;;
  4712                           
  4713                           	psect	text37
  4714  0016BA                     __ptext37:
  4715                           	opt callstack 0
  4716  0016BA                     _Leftwheel_Stop:
  4717                           	opt callstack 28
  4718  0016BA  9089               	bcf	137,0,c	;volatile
  4719  0016BC  0012               	return		;funcret
  4720  0016BE                     __end_of_Leftwheel_Stop:
  4721                           	opt callstack 0
  4722                           
  4723 ;; *************** function _Move_Forward *****************
  4724 ;; Defined at:
  4725 ;;		line 67 in file "./Motors.h"
  4726 ;; Parameters:    Size  Location     Type
  4727 ;;		None
  4728 ;; Auto vars:     Size  Location     Type
  4729 ;;		None
  4730 ;; Return value:  Size  Location     Type
  4731 ;;                  1    wreg      void 
  4732 ;; Registers used:
  4733 ;;		cstack
  4734 ;; Tracked objects:
  4735 ;;		On entry : 0/0
  4736 ;;		On exit  : 0/0
  4737 ;;		Unchanged: 0/0
  4738 ;; Data sizes:     COMRAM   BANK0   BANK1
  4739 ;;      Params:         0       0       0
  4740 ;;      Locals:         0       0       0
  4741 ;;      Temps:          0       0       0
  4742 ;;      Totals:         0       0       0
  4743 ;;Total ram usage:        0 bytes
  4744 ;; Hardware stack levels used:    1
  4745 ;; Hardware stack levels required when called:    1
  4746 ;; This function calls:
  4747 ;;		_Leftwheel_Forward
  4748 ;;		_Rightwheel_Forward
  4749 ;; This function is called by:
  4750 ;;		_Chair_Position
  4751 ;; This function uses a non-reentrant model
  4752 ;;
  4753                           
  4754                           	psect	text38
  4755  00167A                     __ptext38:
  4756                           	opt callstack 0
  4757  00167A                     _Move_Forward:
  4758                           	opt callstack 28
  4759  00167A                     
  4760                           ;./Motors.h: 68:         Leftwheel_Forward();
  4761  00167A  EC4B  F00B         	call	_Leftwheel_Forward	;wreg free
  4762                           
  4763                           ;./Motors.h: 69:         Rightwheel_Forward();
  4764  00167E  EC47  F00B         	call	_Rightwheel_Forward	;wreg free
  4765  001682  0012               	return		;funcret
  4766  001684                     __end_of_Move_Forward:
  4767                           	opt callstack 0
  4768                           
  4769 ;; *************** function _Rightwheel_Forward *****************
  4770 ;; Defined at:
  4771 ;;		line 28 in file "./Motors.h"
  4772 ;; Parameters:    Size  Location     Type
  4773 ;;		None
  4774 ;; Auto vars:     Size  Location     Type
  4775 ;;		None
  4776 ;; Return value:  Size  Location     Type
  4777 ;;                  1    wreg      void 
  4778 ;; Registers used:
  4779 ;;		None
  4780 ;; Tracked objects:
  4781 ;;		On entry : 0/0
  4782 ;;		On exit  : 0/0
  4783 ;;		Unchanged: 0/0
  4784 ;; Data sizes:     COMRAM   BANK0   BANK1
  4785 ;;      Params:         0       0       0
  4786 ;;      Locals:         0       0       0
  4787 ;;      Temps:          0       0       0
  4788 ;;      Totals:         0       0       0
  4789 ;;Total ram usage:        0 bytes
  4790 ;; Hardware stack levels used:    1
  4791 ;; This function calls:
  4792 ;;		Nothing
  4793 ;; This function is called by:
  4794 ;;		_Move_Forward
  4795 ;;		_Move_Right
  4796 ;; This function uses a non-reentrant model
  4797 ;;
  4798                           
  4799                           	psect	text39
  4800  00168E                     __ptext39:
  4801                           	opt callstack 0
  4802  00168E                     _Rightwheel_Forward:
  4803                           	opt callstack 28
  4804  00168E  808D               	bsf	141,0,c	;volatile
  4805  001690  8889               	bsf	137,4,c	;volatile
  4806  001692  9A89               	bcf	137,5,c	;volatile
  4807  001694  0012               	return		;funcret
  4808  001696                     __end_of_Rightwheel_Forward:
  4809                           	opt callstack 0
  4810                           
  4811 ;; *************** function _Leftwheel_Forward *****************
  4812 ;; Defined at:
  4813 ;;		line 20 in file "./Motors.h"
  4814 ;; Parameters:    Size  Location     Type
  4815 ;;		None
  4816 ;; Auto vars:     Size  Location     Type
  4817 ;;		None
  4818 ;; Return value:  Size  Location     Type
  4819 ;;                  1    wreg      void 
  4820 ;; Registers used:
  4821 ;;		None
  4822 ;; Tracked objects:
  4823 ;;		On entry : 0/0
  4824 ;;		On exit  : 0/0
  4825 ;;		Unchanged: 0/0
  4826 ;; Data sizes:     COMRAM   BANK0   BANK1
  4827 ;;      Params:         0       0       0
  4828 ;;      Locals:         0       0       0
  4829 ;;      Temps:          0       0       0
  4830 ;;      Totals:         0       0       0
  4831 ;;Total ram usage:        0 bytes
  4832 ;; Hardware stack levels used:    1
  4833 ;; This function calls:
  4834 ;;		Nothing
  4835 ;; This function is called by:
  4836 ;;		_Move_Forward
  4837 ;;		_Move_left
  4838 ;; This function uses a non-reentrant model
  4839 ;;
  4840                           
  4841                           	psect	text40
  4842  001696                     __ptext40:
  4843                           	opt callstack 0
  4844  001696                     _Leftwheel_Forward:
  4845                           	opt callstack 28
  4846  001696  8089               	bsf	137,0,c	;volatile
  4847  001698  8489               	bsf	137,2,c	;volatile
  4848  00169A  9289               	bcf	137,1,c	;volatile
  4849  00169C  0012               	return		;funcret
  4850  00169E                     __end_of_Leftwheel_Forward:
  4851                           	opt callstack 0
  4852                           
  4853 ;; *************** function _Move_Back *****************
  4854 ;; Defined at:
  4855 ;;		line 75 in file "./Motors.h"
  4856 ;; Parameters:    Size  Location     Type
  4857 ;;		None
  4858 ;; Auto vars:     Size  Location     Type
  4859 ;;		None
  4860 ;; Return value:  Size  Location     Type
  4861 ;;                  1    wreg      void 
  4862 ;; Registers used:
  4863 ;;		cstack
  4864 ;; Tracked objects:
  4865 ;;		On entry : 0/0
  4866 ;;		On exit  : 0/0
  4867 ;;		Unchanged: 0/0
  4868 ;; Data sizes:     COMRAM   BANK0   BANK1
  4869 ;;      Params:         0       0       0
  4870 ;;      Locals:         0       0       0
  4871 ;;      Temps:          0       0       0
  4872 ;;      Totals:         0       0       0
  4873 ;;Total ram usage:        0 bytes
  4874 ;; Hardware stack levels used:    1
  4875 ;; Hardware stack levels required when called:    1
  4876 ;; This function calls:
  4877 ;;		_Leftwheel_Back
  4878 ;;		_Rightwheel_Back
  4879 ;; This function is called by:
  4880 ;;		_Chair_Position
  4881 ;; This function uses a non-reentrant model
  4882 ;;
  4883                           
  4884                           	psect	text41
  4885  001684                     __ptext41:
  4886                           	opt callstack 0
  4887  001684                     _Move_Back:
  4888                           	opt callstack 28
  4889  001684                     
  4890                           ;./Motors.h: 76:         Leftwheel_Back();
  4891  001684  EC53  F00B         	call	_Leftwheel_Back	;wreg free
  4892                           
  4893                           ;./Motors.h: 77:         Rightwheel_Back();
  4894  001688  EC4F  F00B         	call	_Rightwheel_Back	;wreg free
  4895  00168C  0012               	return		;funcret
  4896  00168E                     __end_of_Move_Back:
  4897                           	opt callstack 0
  4898                           
  4899 ;; *************** function _Rightwheel_Back *****************
  4900 ;; Defined at:
  4901 ;;		line 45 in file "./Motors.h"
  4902 ;; Parameters:    Size  Location     Type
  4903 ;;		None
  4904 ;; Auto vars:     Size  Location     Type
  4905 ;;		None
  4906 ;; Return value:  Size  Location     Type
  4907 ;;                  1    wreg      void 
  4908 ;; Registers used:
  4909 ;;		None
  4910 ;; Tracked objects:
  4911 ;;		On entry : 0/0
  4912 ;;		On exit  : 0/0
  4913 ;;		Unchanged: 0/0
  4914 ;; Data sizes:     COMRAM   BANK0   BANK1
  4915 ;;      Params:         0       0       0
  4916 ;;      Locals:         0       0       0
  4917 ;;      Temps:          0       0       0
  4918 ;;      Totals:         0       0       0
  4919 ;;Total ram usage:        0 bytes
  4920 ;; Hardware stack levels used:    1
  4921 ;; This function calls:
  4922 ;;		Nothing
  4923 ;; This function is called by:
  4924 ;;		_Move_Back
  4925 ;; This function uses a non-reentrant model
  4926 ;;
  4927                           
  4928                           	psect	text42
  4929  00169E                     __ptext42:
  4930                           	opt callstack 0
  4931  00169E                     _Rightwheel_Back:
  4932                           	opt callstack 28
  4933  00169E  808D               	bsf	141,0,c	;volatile
  4934  0016A0  9889               	bcf	137,4,c	;volatile
  4935  0016A2  8A89               	bsf	137,5,c	;volatile
  4936  0016A4  0012               	return		;funcret
  4937  0016A6                     __end_of_Rightwheel_Back:
  4938                           	opt callstack 0
  4939                           
  4940 ;; *************** function _Leftwheel_Back *****************
  4941 ;; Defined at:
  4942 ;;		line 37 in file "./Motors.h"
  4943 ;; Parameters:    Size  Location     Type
  4944 ;;		None
  4945 ;; Auto vars:     Size  Location     Type
  4946 ;;		None
  4947 ;; Return value:  Size  Location     Type
  4948 ;;                  1    wreg      void 
  4949 ;; Registers used:
  4950 ;;		None
  4951 ;; Tracked objects:
  4952 ;;		On entry : 0/0
  4953 ;;		On exit  : 0/0
  4954 ;;		Unchanged: 0/0
  4955 ;; Data sizes:     COMRAM   BANK0   BANK1
  4956 ;;      Params:         0       0       0
  4957 ;;      Locals:         0       0       0
  4958 ;;      Temps:          0       0       0
  4959 ;;      Totals:         0       0       0
  4960 ;;Total ram usage:        0 bytes
  4961 ;; Hardware stack levels used:    1
  4962 ;; This function calls:
  4963 ;;		Nothing
  4964 ;; This function is called by:
  4965 ;;		_Move_Back
  4966 ;; This function uses a non-reentrant model
  4967 ;;
  4968                           
  4969                           	psect	text43
  4970  0016A6                     __ptext43:
  4971                           	opt callstack 0
  4972  0016A6                     _Leftwheel_Back:
  4973                           	opt callstack 28
  4974  0016A6  8089               	bsf	137,0,c	;volatile
  4975  0016A8  9489               	bcf	137,2,c	;volatile
  4976  0016AA  8289               	bsf	137,1,c	;volatile
  4977  0016AC  0012               	return		;funcret
  4978  0016AE                     __end_of_Leftwheel_Back:
  4979                           	opt callstack 0
  4980                           
  4981                           	psect	rparam
  4982  0000                     tosu	equ	0xFFF
  4983                           tosh	equ	0xFFE
  4984                           tosl	equ	0xFFD
  4985                           stkptr	equ	0xFFC
  4986                           pclatu	equ	0xFFB
  4987                           pclath	equ	0xFFA
  4988                           pcl	equ	0xFF9
  4989                           tblptru	equ	0xFF8
  4990                           tblptrh	equ	0xFF7
  4991                           tblptrl	equ	0xFF6
  4992                           tablat	equ	0xFF5
  4993                           prodh	equ	0xFF4
  4994                           prodl	equ	0xFF3
  4995                           indf0	equ	0xFEF
  4996                           postinc0	equ	0xFEE
  4997                           postdec0	equ	0xFED
  4998                           preinc0	equ	0xFEC
  4999                           plusw0	equ	0xFEB
  5000                           fsr0h	equ	0xFEA
  5001                           fsr0l	equ	0xFE9
  5002                           wreg	equ	0xFE8
  5003                           indf1	equ	0xFE7
  5004                           postinc1	equ	0xFE6
  5005                           postdec1	equ	0xFE5
  5006                           preinc1	equ	0xFE4
  5007                           plusw1	equ	0xFE3
  5008                           fsr1h	equ	0xFE2
  5009                           fsr1l	equ	0xFE1
  5010                           bsr	equ	0xFE0
  5011                           indf2	equ	0xFDF
  5012                           postinc2	equ	0xFDE
  5013                           postdec2	equ	0xFDD
  5014                           preinc2	equ	0xFDC
  5015                           plusw2	equ	0xFDB
  5016                           fsr2h	equ	0xFDA
  5017                           fsr2l	equ	0xFD9
  5018                           status	equ	0xFD8


Data Sizes:
    Strings     59
    Constant    0
    Data        0
    BSS         10
    Persistent  14
    Stack       0

Auto Spaces:
    Space          Size  Autos    Used
    COMRAM           95     52      76
    BANK0           160      0       0
    BANK1           256      0       0

Pointer List with Targets:

    strcmp@r	PTR const unsigned char  size(2) Largest target is 8
		 -> STR_5(CODE[5]), STR_4(CODE[6]), STR_3(CODE[5]), STR_2(CODE[5]), 
		 -> STR_1(CODE[8]), 

    strcmp@l	PTR const unsigned char  size(2) Largest target is 8
		 -> STR_15(CODE[5]), STR_14(CODE[5]), STR_13(CODE[5]), STR_12(CODE[5]), 
		 -> STR_11(CODE[6]), STR_10(CODE[5]), STR_9(CODE[5]), STR_8(CODE[8]), 

    Lcd_Print_String@a	PTR unsigned char  size(2) Largest target is 16
		 -> STR_7(CODE[14]), STR_6(CODE[16]), 

    Chair_Position@Command	PTR unsigned char  size(2) Largest target is 8
		 -> STR_15(CODE[5]), STR_14(CODE[5]), STR_13(CODE[5]), STR_12(CODE[5]), 
		 -> STR_11(CODE[6]), STR_10(CODE[5]), STR_9(CODE[5]), STR_8(CODE[8]), 

    EUSART2_SetErrorHandler@interruptHandler	PTR FTN()void  size(2) Largest target is 1
		 -> EUSART2_DefaultErrorHandler(), 

    EUSART2_ErrorHandler	PTR FTN()void  size(2) Largest target is 1
		 -> Absolute function(), EUSART2_DefaultErrorHandler(), 

    EUSART2_SetOverrunErrorHandler@interruptHandler	PTR FTN()void  size(2) Largest target is 1
		 -> EUSART2_DefaultOverrunErrorHandler(), 

    EUSART2_OverrunErrorHandler	PTR FTN()void  size(2) Largest target is 1
		 -> Absolute function(), EUSART2_DefaultOverrunErrorHandler(), 

    EUSART2_SetFramingErrorHandler@interruptHandler	PTR FTN()void  size(2) Largest target is 1
		 -> EUSART2_DefaultFramingErrorHandler(), 

    EUSART2_FramingErrorHandler	PTR FTN()void  size(2) Largest target is 1
		 -> Absolute function(), EUSART2_DefaultFramingErrorHandler(), 

    EUSART1_SetErrorHandler@interruptHandler	PTR FTN()void  size(2) Largest target is 1
		 -> EUSART1_DefaultErrorHandler(), 

    EUSART1_ErrorHandler	PTR FTN()void  size(2) Largest target is 1
		 -> Absolute function(), EUSART1_DefaultErrorHandler(), 

    EUSART1_SetOverrunErrorHandler@interruptHandler	PTR FTN()void  size(2) Largest target is 1
		 -> EUSART1_DefaultOverrunErrorHandler(), 

    EUSART1_OverrunErrorHandler	PTR FTN()void  size(2) Largest target is 1
		 -> Absolute function(), EUSART1_DefaultOverrunErrorHandler(), 

    EUSART1_SetFramingErrorHandler@interruptHandler	PTR FTN()void  size(2) Largest target is 1
		 -> EUSART1_DefaultFramingErrorHandler(), 

    EUSART1_FramingErrorHandler	PTR FTN()void  size(2) Largest target is 1
		 -> Absolute function(), EUSART1_DefaultFramingErrorHandler(), 


Critical Paths under _main in COMRAM

    _main->___flge
    ___flge->_Get_Distance_Front
    ___flge->_Get_Distance_Rear
    _EUSART2_Initialize->_EUSART2_SetErrorHandler
    _EUSART2_Initialize->_EUSART2_SetFramingErrorHandler
    _EUSART2_Initialize->_EUSART2_SetOverrunErrorHandler
    _EUSART1_Initialize->_EUSART1_SetErrorHandler
    _EUSART1_Initialize->_EUSART1_SetFramingErrorHandler
    _EUSART1_Initialize->_EUSART1_SetOverrunErrorHandler
    _Lcd_Start->_Lcd_Cmd
    _Lcd_Set_Cursor->_Lcd_Cmd
    _Lcd_Cmd->_Lcd_SetBit
    _Lcd_Print_String->_Lcd_Print_Char
    _Lcd_Print_Char->_Lcd_SetBit
    _Get_Distance_Rear->___fldiv
    _Get_Distance_Front->___fldiv
    ___xxtofl->_TMR1_ReadTimer
    _Chair_Position->_strcmp

Critical Paths under _main in BANK0

    None.

Critical Paths under _main in BANK1

    None.

Call Graph Tables:

 ---------------------------------------------------------------------------------
 (Depth) Function   	        Calls       Base Space   Used Autos Params    Refs
 ---------------------------------------------------------------------------------
 (0) _main                                               111   111      0   13761
                                             41 COMRAM    11    11      0
                     _Chair_Position
                       _EUSART1_Read
                _EUSART1_is_rx_ready
                 _Get_Distance_Front
                  _Get_Distance_Rear
                   _Lcd_Print_String
                     _Lcd_Set_Cursor
                          _Lcd_Start
                  _SYSTEM_Initialize
                             ___flge
 ---------------------------------------------------------------------------------
 (1) ___flge                                              12     4      8     486
                                             29 COMRAM    12     4      8
                 _Get_Distance_Front (ARG)
                  _Get_Distance_Rear (ARG)
 ---------------------------------------------------------------------------------
 (1) _SYSTEM_Initialize                                    0     0      0     588
                 _EUSART1_Initialize
                 _EUSART2_Initialize
              _OSCILLATOR_Initialize
             _PIN_MANAGER_Initialize
                    _TMR1_Initialize
 ---------------------------------------------------------------------------------
 (2) _TMR1_Initialize                                      0     0      0       0
 ---------------------------------------------------------------------------------
 (2) _PIN_MANAGER_Initialize                               0     0      0       0
 ---------------------------------------------------------------------------------
 (2) _OSCILLATOR_Initialize                                0     0      0       0
 ---------------------------------------------------------------------------------
 (2) _EUSART2_Initialize                                   0     0      0     294
            _EUSART2_SetErrorHandler
     _EUSART2_SetFramingErrorHandler
     _EUSART2_SetOverrunErrorHandler
 ---------------------------------------------------------------------------------
 (3) _EUSART2_SetOverrunErrorHandler                       2     0      2      98
                                              0 COMRAM     2     0      2
 ---------------------------------------------------------------------------------
 (3) _EUSART2_SetFramingErrorHandler                       2     0      2      98
                                              0 COMRAM     2     0      2
 ---------------------------------------------------------------------------------
 (3) _EUSART2_SetErrorHandler                              2     0      2      98
                                              0 COMRAM     2     0      2
 ---------------------------------------------------------------------------------
 (2) _EUSART1_Initialize                                   0     0      0     294
            _EUSART1_SetErrorHandler
     _EUSART1_SetFramingErrorHandler
     _EUSART1_SetOverrunErrorHandler
 ---------------------------------------------------------------------------------
 (3) _EUSART1_SetOverrunErrorHandler                       2     0      2      98
                                              0 COMRAM     2     0      2
 ---------------------------------------------------------------------------------
 (3) _EUSART1_SetFramingErrorHandler                       2     0      2      98
                                              0 COMRAM     2     0      2
 ---------------------------------------------------------------------------------
 (3) _EUSART1_SetErrorHandler                              2     0      2      98
                                              0 COMRAM     2     0      2
 ---------------------------------------------------------------------------------
 (1) _Lcd_Start                                            3     3      0     165
                                              3 COMRAM     3     3      0
                            _Lcd_Cmd
                         _Lcd_SetBit
 ---------------------------------------------------------------------------------
 (1) _Lcd_Set_Cursor                                       5     4      1     497
                                              3 COMRAM     5     4      1
                            _Lcd_Cmd
 ---------------------------------------------------------------------------------
 (2) _Lcd_Cmd                                              2     2      0      75
                                              1 COMRAM     2     2      0
                         _Lcd_SetBit
 ---------------------------------------------------------------------------------
 (1) _Lcd_Print_String                                     6     4      2     422
                                              8 COMRAM     6     4      2
                     _Lcd_Print_Char
 ---------------------------------------------------------------------------------
 (2) _Lcd_Print_Char                                       7     7      0     180
                                              1 COMRAM     7     7      0
                         _Lcd_SetBit
 ---------------------------------------------------------------------------------
 (2) _Lcd_SetBit                                           1     1      0      60
                                              0 COMRAM     1     1      0
 ---------------------------------------------------------------------------------
 (1) _Get_Distance_Rear                                    4     0      4    4950
                                             25 COMRAM     4     0      4
                     _TMR1_ReadTimer
                    _TMR1_StartTimer
                     _TMR1_StopTimer
                    _TMR1_WriteTimer
                            ___fladd
                            ___fldiv
                           ___xxtofl
 ---------------------------------------------------------------------------------
 (1) _Get_Distance_Front                                   4     0      4    4950
                                             25 COMRAM     4     0      4
                     _TMR1_ReadTimer
                    _TMR1_StartTimer
                     _TMR1_StopTimer
                    _TMR1_WriteTimer
                            ___fladd
                            ___fldiv
                           ___xxtofl
 ---------------------------------------------------------------------------------
 (2) ___xxtofl                                            14    10      4     474
                                              8 COMRAM    14    10      4
                     _TMR1_ReadTimer (ARG)
 ---------------------------------------------------------------------------------
 (2) ___fldiv                                             25    17      8    1551
                                              0 COMRAM    25    17      8
 ---------------------------------------------------------------------------------
 (2) ___fladd                                             16     8      8    2540
                                              0 COMRAM    16     8      8
 ---------------------------------------------------------------------------------
 (2) _TMR1_WriteTimer                                      2     0      2     316
                                              0 COMRAM     2     0      2
 ---------------------------------------------------------------------------------
 (2) _TMR1_StopTimer                                       0     0      0       0
 ---------------------------------------------------------------------------------
 (2) _TMR1_StartTimer                                      0     0      0       0
 ---------------------------------------------------------------------------------
 (2) _TMR1_ReadTimer                                       8     6      2      69
                                              0 COMRAM     8     6      2
 ---------------------------------------------------------------------------------
 (1) _EUSART1_is_rx_ready                                  0     0      0       0
 ---------------------------------------------------------------------------------
 (1) _EUSART1_Read                                         0     0      0       0
 ---------------------------------------------------------------------------------
 (1) _Chair_Position                                       2     0      2    1590
                                              5 COMRAM     2     0      2
                          _Move_Back
                       _Move_Forward
                         _Move_Right
                          _Move_left
                               _Stop
                             _strcmp
 ---------------------------------------------------------------------------------
 (2) _strcmp                                               5     1      4     872
                                              0 COMRAM     5     1      4
 ---------------------------------------------------------------------------------
 (2) _Stop                                                 0     0      0       0
                     _Leftwheel_Stop
                    _Rightwheel_Stop
 ---------------------------------------------------------------------------------
 (2) _Move_left                                            0     0      0       0
                  _Leftwheel_Forward
                    _Rightwheel_Stop
 ---------------------------------------------------------------------------------
 (3) _Rightwheel_Stop                                      0     0      0       0
 ---------------------------------------------------------------------------------
 (2) _Move_Right                                           0     0      0       0
                     _Leftwheel_Stop
                 _Rightwheel_Forward
 ---------------------------------------------------------------------------------
 (3) _Leftwheel_Stop                                       0     0      0       0
 ---------------------------------------------------------------------------------
 (2) _Move_Forward                                         0     0      0       0
                  _Leftwheel_Forward
                 _Rightwheel_Forward
 ---------------------------------------------------------------------------------
 (3) _Rightwheel_Forward                                   0     0      0       0
 ---------------------------------------------------------------------------------
 (3) _Leftwheel_Forward                                    0     0      0       0
 ---------------------------------------------------------------------------------
 (2) _Move_Back                                            0     0      0       0
                     _Leftwheel_Back
                    _Rightwheel_Back
 ---------------------------------------------------------------------------------
 (3) _Rightwheel_Back                                      0     0      0       0
 ---------------------------------------------------------------------------------
 (3) _Leftwheel_Back                                       0     0      0       0
 ---------------------------------------------------------------------------------
 Estimated maximum stack depth 3
 ---------------------------------------------------------------------------------

 Call Graph Graphs:

 _main (ROOT)
   _Chair_Position
     _Move_Back
       _Leftwheel_Back
       _Rightwheel_Back
     _Move_Forward
       _Leftwheel_Forward
       _Rightwheel_Forward
     _Move_Right
       _Leftwheel_Stop
       _Rightwheel_Forward
     _Move_left
       _Leftwheel_Forward
       _Rightwheel_Stop
     _Stop
       _Leftwheel_Stop
       _Rightwheel_Stop
     _strcmp
   _EUSART1_Read
   _EUSART1_is_rx_ready
   _Get_Distance_Front
     _TMR1_ReadTimer
     _TMR1_StartTimer
     _TMR1_StopTimer
     _TMR1_WriteTimer
     ___fladd
     ___fldiv
     ___xxtofl
       _TMR1_ReadTimer (ARG)
   _Get_Distance_Rear
     _TMR1_ReadTimer
     _TMR1_StartTimer
     _TMR1_StopTimer
     _TMR1_WriteTimer
     ___fladd
     ___fldiv
     ___xxtofl
       _TMR1_ReadTimer (ARG)
   _Lcd_Print_String
     _Lcd_Print_Char
       _Lcd_SetBit
   _Lcd_Set_Cursor
     _Lcd_Cmd
       _Lcd_SetBit
   _Lcd_Start
     _Lcd_Cmd
       _Lcd_SetBit
     _Lcd_SetBit
   _SYSTEM_Initialize
     _EUSART1_Initialize
       _EUSART1_SetErrorHandler
       _EUSART1_SetFramingErrorHandler
       _EUSART1_SetOverrunErrorHandler
     _EUSART2_Initialize
       _EUSART2_SetErrorHandler
       _EUSART2_SetFramingErrorHandler
       _EUSART2_SetOverrunErrorHandler
     _OSCILLATOR_Initialize
     _PIN_MANAGER_Initialize
     _TMR1_Initialize
   ___flge
     _Get_Distance_Front (ARG)
       _TMR1_ReadTimer
       _TMR1_StartTimer
       _TMR1_StopTimer
       _TMR1_WriteTimer
       ___fladd
       ___fldiv
       ___xxtofl
         _TMR1_ReadTimer (ARG)
     _Get_Distance_Rear (ARG)
       _TMR1_ReadTimer
       _TMR1_StartTimer
       _TMR1_StopTimer
       _TMR1_WriteTimer
       ___fladd
       ___fldiv
       ___xxtofl
         _TMR1_ReadTimer (ARG)

 Address spaces:
Name               Size   Autos  Total    Cost      Usage
BIGRAM             1FF      0       0       8        0.0%
EEDATA             100      0       0       0        0.0%
BITBANK1           100      0       0       7        0.0%
BANK1              100      0       0       5        0.0%
BITBANK0            A0      0       0       3        0.0%
BANK0               A0      0       0       4        0.0%
BITCOMRAM           5F      0       0       0        0.0%
COMRAM              5F     34      4C       1       80.0%
BITSFR_1             0      0       0     200        0.0%
SFR_1                0      0       0     200        0.0%
BITSFR               0      0       0     200        0.0%
SFR                  0      0       0     200        0.0%
STACK                0      0       0       2        0.0%
NULL                 0      0       0       0        0.0%
ABS                  0      0      4C       6        0.0%
DATA                 0      0      4C       9        0.0%
CODE                 0      0       0       0        0.0%


Microchip Technology PIC18 Macro Assembler V2.10 build 88905656 
Symbol Table                                                                                   Mon Apr 13 06:12:01 2020

                                  ___fldiv@aexp 0019                                    ___fldiv@bexp 0018  
                                  ___fldiv@sign 0011                                              l51 1610  
                                            l43 1524                                              l60 154E  
                                            l64 1574                                              l91 1646  
                                            l94 165A                                              l88 1650  
                                            u10 13C2                                              u11 13BE  
                                            u20 13D8                                              u21 13D4  
                                            u30 13EE                                              u31 13EA  
                                            u40 1404                                              u41 1400  
                                            u80 123A                                              u81 1236  
                                            u90 126E                                              u91 126A  
                                  __CFG_CP0$OFF 000000                                    __CFG_CP1$OFF 000000  
                                           l113 15FC                                             l116 161E  
                                           l330 1696                                             l155 14A8  
                                           l332 1698                                             l412 1042  
                                           l341 1690                                             l501 1218  
                                           l350 16A8                                             l334 169A  
                                           l182 16B4                                             l343 1692  
                                           l415 1054                                             l431 1014  
                                           l511 1270                                             l503 123A  
                                           l352 16AA                                             l336 169C  
                                           l248 14E6                                             l361 16A2  
                                           l345 1694                                             l185 16B0  
                                           l193 154C                                             l425 0F46  
                                           l354 16AC                                             l418 1110  
                                           l290 1628                                             l363 16A4  
                                           l339 168E                                             l371 16B6  
                                           l451 13C8                                             l507 124C  
                                           l179 15D0                                             l348 16A6  
                                           l188 15B4                                             l428 0F58  
                                           l460 13EE                                             l357 169E  
                                           l373 16B8                                             l509 126E  
                                           l517 1462                                             l293 163C  
                                           l366 16BA                                             l382 166E  
                                           l454 13D8                                             l359 16A0  
                                           l471 140C                                             l463 13F4  
                                           l287 1632                                             l527 0BA8  
                                           l376 1682                                             l368 16BC  
                                           l392 11F4                                             l448 13C2  
                                           l480 1594                                             l544 0C58  
                                           l385 1678                                             l457 13DE  
                                           l466 1404                                             l474 1578  
                                           l379 168C                                             l388 1664  
                                           l469 140A                                             l821 0F18  
                                           l494 13B0                                             l816 0ED2  
                                           l489 134E                                    __CFG_CPB$OFF 000000  
                                  __CFG_CPD$OFF 000000                                             u820 160E  
                                           u821 1608                                             u830 155C  
                                           u831 1558                                             u840 156E  
                                           u841 156A                                             u826 1610  
        __end_of_EUSART2_SetFramingErrorHandler 1634         __size_of_EUSART2_SetFramingErrorHandler 000A  
                _EUSART2_SetFramingErrorHandler 162A                                 _timer1ReloadVal 003B  
                                 main@Direction 0034                                             wreg 000FE8  
                                    _TXSTA1bits 000FAC                                      _TXSTA2bits 000F72  
                                  __CFG_LVP$OFF 000000                                            l1105 0616  
                                          l1106 0604                                            l1220 0DAC  
                                          l1133 0A96                                            l1213 0D50  
                                          l1310 167A                                            l1230 12E8  
                                          l1206 0CB8                                            l2110 162A  
                                          l1135 08F6                                            l1312 1684  
                                          l1080 041A                                            l2200 02D4  
                                          l1144 093C                                            l2104 1648  
                                          l2120 1508                                            l2112 1620  
                                          l1081 03E0                                            l1209 0E14  
                                          l1314 1666                                            l2202 02E4  
                                          l2210 030E                                            l1146 09B4  
                                          l1138 08BA                                            l1250 13F6  
                                          l2106 163E                                            l2122 1514  
                                          l2114 1634                                            l2130 14CA  
                                          l1147 09A2                                            l1316 1670  
                                          l2140 15AC                                            l2300 0516  
                                          l2220 0346                                            l2212 031E  
                                          l2204 02F4                                            l1244 13B4  
                                          l1340 11F8                                            l1332 157A  
                                          l2108 1652                                            l2124 1520  
                                          l2116 14E8                                            l2132 14D6  
                                          l1318 165C                                            l2150 153A  
                                          l2302 0526                                            l2230 035A  
                                          l2222 034A                                            l2214 0330  
                                          l2206 0304                                            l1246 13CA  
                                          l1342 1204                                            l1334 1580  
                                          l2118 14FC                                            l2134 14E2  
                                          l2126 14AA                                            l1262 1464  
                                          l1270 15C2                                            l1079 042C  
                                          l2160 1276                                            l2136 1596  
                                          l2152 153E                                            l2144 1526  
                                          l2320 05A8                                            l2312 0580  
                                          l1096 0546                                            l2304 0536  
                                          l1088 06FC                                            l2240 036E  
                                          l2232 035E                                            l2224 034E  
                                          l2216 033E                                            l2208 0306  
                                          l2400 0790                                            l1248 13E0  
                                          l1360 1242                                            l1344 1206  
                                          l1336 1582                                            l2128 14BE  
                                          l1264 14A6                                            l1272 15CA  
                                          l2162 127E                                            l2138 15A0  
                                          l2146 1534                                            l2154 1544  
                                          l2322 05B0                                            l2314 058A  
                                          l2306 055C                                            l2330 05D4  
                                          l2250 0382                                            l2242 0372  
                                          l2234 0362                                            l2226 0352  
                                          l2218 0342                                            l2170 023E  
                                          l2410 07CA                                            l2402 07A0  
                                          l1370 1254                                            l1362 1244  
                                          l1354 121A                                            l1346 120E  
                                          l1338 1592                                            l1266 1612  
                                          l2164 12A8                                            l1284 16B2  
                                          l2156 1548                                            l2148 1536  
                                          l2340 0626                                            l2332 05D8  
                                          l2324 05B4                                            l2316 0598  
                                          l2308 056C                                            l2260 03FA  
                                          l2252 03AC                                            l2244 0376  
                                          l2236 0366                                            l2228 0356  
                                          l2180 027A                                            l2172 024A  
                                          l2500 0A8A                                            l2412 07E0  
                                          l2404 07B0                                            l1356 1220  
                                          l1348 1210                                            l1268 15B6  
                                          l2166 12C4                                            l2158 1272  
                                          l1286 16AE                                            l2350 068C  
                                          l2342 0632                                            l2334 05E6  
                                          l2326 05C4                                            l2318 059A  
                                          l2270 043A                                            l2262 03FE  
                                          l2254 03C8                                            l2246 037A  
                                          l2238 036A                                            l2190 02AA  
                                          l2182 028A                                            l2174 0258  
                                          l2502 0A8C                                            l2430 0834  
                                          l2414 07F0                                            l2422 0810  
                                          l2406 07B2                                            l2510 0C64  
                                          l1358 123C                                            l2360 06D4  
                                          l2352 069C                                            l2344 0640  
                                          l2336 05FC                                            l2328 05C6  
                                          l2280 047C                                            l2272 044A  
                                          l2264 040C                                            l2256 03D8  
                                          l2248 037E                                            l2192 02BC  
                                          l2184 028C                                            l2176 025A  
                                          l2440 0886                                            l2432 084E  
                                          l2424 0820                                            l2416 07F8  
                                          l2408 07BA                                            l2512 0C74  
                                          l1368 124E                                            l2362 06D6  
                                          l2354 06BC                                            l2346 067A  
                                          l2290 04AA                                            l2282 048A  
                                          l2266 040E                                            l2258 03EE  
                                          l2194 02BE                                            l2178 026A  
                                          l2186 0294                                            l2450 08E2  
                                          l2442 0896                                            l2434 085E  
                                          l2426 0820                                            l2418 07FC  
                                          l2530 0D3A                                            l2522 0CF2  
                                          l2514 0C82                                            l2610 1050  
                                          l2602 1016                                            l2364 06DC  
                                          l2356 06C0                                            l2348 067C  
                                          l2292 04B4                                            l2284 0496  
                                          l2276 045E                                            l2268 0418  
                                          l2196 02C4                                            l2188 02A4  
                                          l2460 0922                                            l2452 08E4  
                                          l2444 08AA                                            l2436 086E  
                                          l2380 072A                                            l2372 06FE  
                                          l2540 0DBA                                            l2532 0D46  
                                          l2524 0CFA                                            l2516 0CC8  
                                          l2620 10CC                                            l2612 1062  
                                          l2604 1036                                            l1900 1356  
                                          l2700 0A9C                                            l2366 06EA  
                                          l2358 06CE                                            l2286 049A  
                                          l2278 046E                                            l2294 04BA  
                                          l2198 02D2                                            l2470 095E  
                                          l2462 092C                                            l2454 08F4  
                                          l2446 08B8                                            l2438 087E  
                                          l2390 0764                                            l2382 073A  
                                          l2374 070A                                            l2550 0E02  
                                          l2542 0DBC                                            l2534 0D82  
                                          l2526 0D06                                            l2518 0CDE  
                                          l2622 1100                                            l2614 1088  
                                          l2606 1038                                            l2630 0F3C  
                                          l1910 138C                                            l1902 135C  
                                          l2710 0AB6                                            l2702 0A9C  
                                          l2368 06EC                                            l2296 04E0  
                                          l2288 04A8                                            l2480 09D0  
                                          l2472 096C                                            l2464 093A  
                                          l2456 0906                                            l2448 08C4  
                                          l2392 076A                                            l2384 074A  
                                          l2376 0718                                            l2552 0E04  
                                          l2544 0DC0                                            l2536 0D8E  
                                          l2528 0D38                                            l2616 108C  
                                          l2608 1040                                            l2640 0F90  
                                          l2632 0F44                                            l1920 13AA  
                                          l1912 1392                                            l1904 136A  
                                          l2560 15F8                                            l2720 0AF8  
                                          l2712 0AC0                                            l2704 0A9C  
                                          l2570 1140                                            l2562 1112  
                                          l1770 1572                                            l1762 154E  
                                          l2298 0514                                            l2490 0A3C  
                                          l2482 09DE                                            l2474 099A  
                                          l2458 091C                                            l2466 094C  
                                          l2394 0770                                            l2386 074C  
                                          l2378 071A                                            l2546 0DE4  
                                          l2538 0D9C                                            l2618 1098  
                                          l2642 0F9C                                            l2634 0F54  
                                          l2626 0F1A                                            l2650 12EC  
                                          l1914 1398                                            l1906 1380  
                                          l2730 0B42                                            l2722 0B04  
                                          l2714 0ACC                                            l2706 0AA0  
                                          l2580 1194                                            l2572 1166  
                                          l2564 1138                                            l1764 155C  
                                          l2492 0A56                                            l2484 0A08  
                                          l2468 095A                                            l2396 077E  
                                          l2388 0754                                            l2548 0DF4  
                                          l2644 0FD0                                            l2636 0F66  
                                          l2628 0F3A                                            l2660 1330  
                                          l2652 12FC                                            l1916 139E  
                                          l1908 1386                                            l2556 15E8  
                                          l2732 0B54                                            l2724 0B20  
                                          l2716 0AE0                                            l2708 0AAA  
                                          l1766 1560                                            l1758 15FE  
                                          l2494 0A72                                            l2478 09C4  
                                          l2486 0A0C                                            l2398 0780  
                                          l2646 1004                                            l2638 0F8C  
                                          l2670 1436                                            l2662 1342  
                                          l2654 130E                                            l1918 13A4  
                                          l2558 15F4                                            l2750 0BBC  
                                          l2742 0B86                                            l2726 0B32  
                                          l2718 0AE6                                            l1768 156E  
                                          l2496 0A76                                            l2488 0A26  
                                          l2672 143A                                            l2664 1348  
                                          l2656 1314                                            l2680 0E82  
                                          l2760 0C18                                            l2752 0BC8  
                                          l2744 0B98                                            l2736 0B64  
                                          l2594 11CA                                            l2586 119C  
                                          l2578 116E                                            l2498 0A84  
                                          l2666 140E                                            l2658 131E  
                                          l1890 1356                                            l2690 0F10  
                                          l2682 0E92                                            l2674 0E16  
                                          l2762 0C1A                                            l2754 0BCA  
                                          l2738 0B76                                            l2596 11F0  
                                          l2588 11C2                                            l2668 141A  
                                          l1892 1356                                            l2692 0F16  
                                          l2684 0EA0                                            l2676 0E44  
                                          l2764 0C22                                            l2756 0BD2  
                                          l2748 0BAC                                            l2686 0EB2  
                                          l2678 0E54                                            l2758 0C0C  
                                          l1888 1350                                            l2688 0EC0  
                                          l2698 0A98                                            STR_1 021F  
                                          STR_2 022D                                            STR_3 0237  
                                          STR_4 0227                                            STR_5 0232  
                                          STR_6 0201                                            STR_7 0211  
                                          STR_8 021F                                            STR_9 022D  
                                          u1200 1534                                            u2000 1050  
                                          u1201 1530                                            u2001 104C  
                                          u1210 12A8                                            u2010 1062  
                                          u1211 12A4                                            u2011 105E  
                                          u1220 12C4                                            u1300 0330  
                                          u2020 0F54                                            u2100 0EC0  
                                          u1221 12C0                                            u1301 032C  
                                          u2021 0F50                                            u2101 0EBC  
                                          u1310 033E                                            u1230 0258  
                                          u2030 0F66                                            u2110 0F10  
                                          u1311 033A                                            u1231 0254  
                                          u2031 0F62                                            u2111 0F0C  
                                          u1400 047C                                            u1320 03AC  
                                          u1240 026A                                            u2040 12FC  
                                          u2120 0AE0                                            u1401 0478  
                                          u1321 03A8                                            u1241 0266  
                                          u2041 12F8                                            u2121 0ADC  
                                          u1410 048A                                            u1330 03C4  
                                          u1250 027A                                            u2050 1330  
                                          u2130 0AF8                                            u1411 0486  
                                          u1331 03BE                                            u1251 0276  
                                          u2051 132C                                            u2131 0AF4  
                                          u1500 05D4                                            u1420 04A8  
                                          u1340 03C6                                            u1260 02BC  
                                          u2060 1462                                            u2140 0B32  
                                          u1501 05D0                                            u1421 04A4  
                                          u1261 02B8                                            u2061 145E  
                                          u2141 0B2E                                            _LATA 000F89  
                                          u1510 05E6                                            u1430 04E0  
                                          u1350 03EE                                            u1270 02D2  
                                          u2070 0E44                                            u2150 0B54  
                                          _LATB 000F8A                                            u1511 05E2  
                                          u1431 04DC                                            u1351 03EA  
                                          u1271 02CE                                            u2071 0E40  
                                          u2151 0B50                                            u2207 0B0E  
                                          _LATC 000F8B                                            u1600 06CE  
                                          u1520 05FC                                            u1440 0526  
                                          u1360 040C                                            u1280 02E4  
                                          u2080 0E82                                            u2160 0B76  
                                          _LATD 000F8C                                            u1601 06CA  
                                          u1521 05F8                                            u1441 0522  
                                          u1361 0408                                            u1281 02E0  
                                          u2081 0E7E                                            u2217 0BCC  
                                          u2161 0B72                                            _LATE 000F8D  
                                          u1610 06EA                                            u1530 0612  
                                          u1450 055C                                            u1370 042C  
                                          u1290 02F4                                            u2090 0EA0  
                                          u2170 0B98                                            u1611 06E6  
                                          u1531 060E                                            u1451 0558  
                                          u1371 0428                                            u1291 02F0  
                                          u2091 0E9C                                            u2227 0C1C  
                                          u2171 0B94                                            u1540 0626  
                                          u1460 056C                                            u1380 043A  
                                          u1700 0896                                            u1620 0718  
                                          u2180 0C08                                            u1541 0622  
                                          u1461 0568                                            u1381 0436  
                                          u1701 0892                                            u1621 0714  
                                          u2237 1362                                            u2181 0C04  
                                          u1550 0640                                            u1470 0598  
                                          u1390 044A                                            u1710 08B8  
                                          u1630 072A                                            u2190 0C58  
                                          u1551 063C                                            u1471 0594  
                                          u1391 0446                                            u1711 08B4  
                                          u1631 0726                                            u2247 1376  
                                          u2191 0C54                                            u1560 067A  
                                          u1480 05A8                                            u1800 09C4  
                                          u1720 08E2                                            u1640 073A  
                                          u1561 0676                                            u1481 05A4  
                                          u1801 09C0                                            u1721 08DE  
                                          u1641 0736                                            u2257 1588  
                                          u1570 068C                                            u1490 05C4  
                                          u1810 09DE                                            u1730 0906  
                                          u1650 077E                                            u1571 0688  
                                          u1491 05C0                                            u1811 09DA  
                                          u1731 0902                                            u1651 077A  
                                          u2267 0F3E                                            u1580 069C  
                                          u1820 0A26                                            u1740 091C  
                                          u1660 0790                                            u1900 0D9C  
                                          u1581 0698                                            u1821 0A22  
                                          u1741 0918                                            u1661 078C  
                                          u1901 0D98                                            u2277 103A  
                                          u1590 06BC                                            u1830 0A56  
                                          u1750 093A                                            u1670 07A0  
                                          u1910 0DAC                                            u1591 06B8  
                                          u1831 0A52                                            u1751 0936  
                                          u1671 079C                                            u1911 0DA8  
                                          u1840 0A84                                            u1760 095A  
                                          u1680 07E0                                            u1920 0DBA  
                                          u1841 0A80                                            u1761 0956  
                                          u1681 07DC                                            u1921 0DB6  
                                          u1770 096C                                            u1690 0820  
                                          u1930 0DF4                                            u1850 0C74  
                                          u1771 0968                                            u1691 081C  
                                          u1931 0DF0                                            u1851 0C70  
                                          u1780 099A                                            u1940 0E02  
                                          u1860 0C82                                            u1781 0996  
                                          u1941 0DFE                                            u1861 0C7E  
                                          u1950 1138                                            u1790 09B0  
                                          u1870 0CDE                                            u1951 1134  
                                          u1791 09AC                                            u1871 0CDA  
                                          u1960 1166                                            u1880 0D34  
                                          u1961 1162                                            u1881 0D30  
                                          u1970 1194                                            u1890 0D7E  
                                          u1971 1190                                            u1891 0D7A  
                                          u1980 11C2                                            u1981 11BE  
                                          u1990 11F0                                            u1991 11EC  
                                          _TMR1 000FCE                                            _WPUB 000F61  
                                          _Time 0047                                            _Stop 165C  
                                          _main 0A98                                   ?_EUSART1_Read 0001  
                                 __CFG_BORV$190 000000                                ??_Chair_Position 0008  
                                          start 0000                                   __CFG_IESO$OFF 000000  
                               ___fldiv@new_exp 0012                              Lcd_Print_Char@data 0008  
                               __end_of_Lcd_Cmd 1596                                    ___param_bank 000000  
                                    _Lcd_SetBit 13B2                  __size_of_OSCILLATOR_Initialize 000E  
                 __end_of_OSCILLATOR_Initialize 1620                                           ?_Stop 0001  
                    __end_of_Get_Distance_Front 1112                                 __end_of___fladd 06FE  
                                         ?_main 0001                                 __end_of___fldiv 0A98  
                                         STR_10 0237                                           STR_11 0227  
                                         STR_12 0232                                           STR_13 0232  
                                         STR_14 0232                                           STR_15 0232  
                               _TMR1_StartTimer 16B2                                           _T1CON 000FCD  
                                __CFG_DEBUG$OFF 000000                                           _TMR1H 000FCF  
                                         _TMR1L 000FCE                         __size_of_Lcd_Set_Cursor 0066  
                                         _TRISA 000F92                                           _TRISB 000F93  
                                         _TRISC 000F94                                           _TRISD 000F95  
                                         _TRISE 000F96                                   __CFG_WRT0$OFF 000000  
                                 __CFG_WRT1$OFF 000000                                  __CFG_EBTR0$OFF 000000  
                                __CFG_FCMEN$OFF 000000                                  __CFG_EBTR1$OFF 000000  
                                 __CFG_WRTB$OFF 000000                                   __CFG_WRTC$OFF 000000  
                                 __CFG_WRTD$OFF 000000                                  __CFG_EBTRB$OFF 000000  
                            __CFG_MCLRE$INTMCLR 000000                         __end_of_TMR1_Initialize 15D2  
                                __CFG_BOREN$OFF 000000                                           tablat 000FF5  
                                ??_EUSART1_Read 0001                       __size_of_Lcd_Print_String 0056  
                                         status 000FD8                                  __CFG_HFOFST$ON 000000  
            _EUSART1_DefaultFramingErrorHandler 000000                                 _TMR1_WriteTimer 1526  
                                __CFG_PBADEN$ON 000000                         __size_of_Lcd_Print_Char 007C  
                               __initialization 15D2                                    __end_of_Stop 1666  
                    __end_of_EUSART1_Initialize 1526                                    __end_of_main 0C62  
                                _Leftwheel_Back 16A6                     __size_of_Rightwheel_Forward 0008  
                                        ??_Stop 0001                                          ??_main 002A  
                                _Leftwheel_Stop 16BA                                   __activetblptr 000002  
                   _EUSART2_DefaultErrorHandler 000000                              __size_of_Lcd_Start 0062  
                    __end_of_EUSART2_Initialize 14E8                                          _ANSELA 000F38  
                                        _ANSELB 000F39                                          _ANSELC 000F3A  
                                        _ANSELD 000F3B                                          _ANSELE 000F3C  
                                        _T1GCON 000FCC                         TMR1_WriteTimer@timerVal 0001  
                  __size_of_EUSART1_is_rx_ready 0014                                  __CFG_WDTEN$OFF 000000  
                                        _RCREG1 000FAE                                          _RCREG2 000F74  
                                        _RCSTA1 000FAB                                          _RCSTA2 000F71  
                                        _OSCCON 000FD3                                       ??_Lcd_Cmd 0002  
                                        _SPBRG1 000FAF                                          _SPBRG2 000F75  
                                    _Move_Right 1670                                          _TXREG1 000FAD  
                                        _TXREG2 000F73                                __end_of___xxtofl 0E16  
                                        _TXSTA1 000FAC                                          _TXSTA2 000F72  
                                __CFG_XINST$OFF 000000                                          ___flge 0E16  
                       __end_of_TMR1_StartTimer 16B6                                       ??___fladd 0009  
                                     ??___fldiv 0009                                  __CFG_STVREN$ON 000000  
                        __end_of_Leftwheel_Back 16AE                              __size_of_Move_Back 000A  
                      ?_EUSART1_SetErrorHandler 0001                          __end_of_Leftwheel_Stop 16BE  
                                   ?_Lcd_SetBit 0001                               _Leftwheel_Forward 1696  
                                        clear_0 15D8                              __size_of_Move_left 000A  
                   _EUSART2_FramingErrorHandler 0039                                 _Rightwheel_Back 169E  
              ??_EUSART1_SetOverrunErrorHandler 0003                 ?_EUSART1_SetOverrunErrorHandler 0001  
                                        _strcmp 1272                              ?_Leftwheel_Forward 0001  
                               _Rightwheel_Stop 16B6                                    __mediumconst 0000  
                                        tblptrh 000FF7                                          tblptrl 000FF6  
                                        tblptru 000FF8                             ??_Leftwheel_Forward 0001  
                          Lcd_Print_Char@i_1375 0006                         __end_of_TMR1_WriteTimer 154E  
                               Lcd_Set_Cursor@a 0005                                 Lcd_Set_Cursor@b 0004  
                               Lcd_Set_Cursor@y 0007                                 Lcd_Set_Cursor@z 0006  
                                    ___flge@ff1 001E                                      ___flge@ff2 0022  
                              ?_TMR1_Initialize 0001                                    ___xxtofl@arg 0013  
                                  ___xxtofl@exp 0012                               _SYSTEM_Initialize 15E8  
                                  ___xxtofl@val 0009                                      __accesstop 0060  
                       __end_of__initialization 15DE                              ?_SYSTEM_Initialize 0001  
                                 ___rparam_used 000001                               __end_of_Lcd_Start 13B2  
                                __pcstackCOMRAM 0001                                   ?_Move_Forward 0001  
                     __end_of_Leftwheel_Forward 169E                             ??_SYSTEM_Initialize 0003  
                               ?_Leftwheel_Back 0001                                 ?_Leftwheel_Stop 0001  
                          __end_of_EUSART1_Read 1576                                  _Lcd_Set_Cursor 12EA  
                      ?_EUSART2_SetErrorHandler 0001                         __size_of_TMR1_ReadTimer 0020  
                     __end_of_SYSTEM_Initialize 15FE                               __end_of_Move_Back 168E  
                               __CFG_PLLCFG$OFF 000000                               __end_of_Move_left 1670  
                              _Lcd_Print_String 140E                             __size_of_Lcd_SetBit 005C  
                                   ?_Move_Right 0001                ??_EUSART2_SetFramingErrorHandler 0003  
               ?_EUSART2_SetFramingErrorHandler 0001                                      __pnvCOMRAM 0035  
                                _Lcd_Print_Char 11F6                 __end_of_EUSART1_SetErrorHandler 165C  
                                ??_Move_Forward 0001                              __CFG_CCP2MX$PORTC1 000000  
                       __end_of_Rightwheel_Back 16A6                                         ?___flge 001E  
                       __end_of_Rightwheel_Stop 16BA                                ?_TMR1_StartTimer 0001  
                            __CFG_CCP3MX$PORTB5 000000                              Lcd_SetBit@data_bit 0001  
                        __end_of_Lcd_Set_Cursor 1350                                         ?_strcmp 0001  
        __end_of_EUSART1_SetFramingErrorHandler 1652         __size_of_EUSART1_SetFramingErrorHandler 000A  
                _EUSART1_SetFramingErrorHandler 1648                         __size_of_TMR1_StopTimer 0004  
                                     ?___xxtofl 0009                                         _OSCCON2 000FD2  
                                       _OSCTUNE 000F9B                                         _SPBRGH1 000FB0  
                                       _SPBRGH2 000F76                                ?_TMR1_WriteTimer 0001  
                            _Get_Distance_Front 1016                                 Lcd_Print_Char@i 0004  
                                       _Lcd_Cmd 1576                          __end_of_Lcd_Print_Char 1272  
                           ?_Get_Distance_Front 001A                                 __CFG_PWRTEN$OFF 000000  
                                       __Hparam 0000                                         __Lparam 0000  
                    __size_of_Leftwheel_Forward 0008                                 __size_of___flge 0104  
                                       ___fladd 023E                                         ___fldiv 06FE  
                                  __psmallconst 0200                             _EUSART1_is_rx_ready 15FE  
                                       __pcinit 15D2                 __end_of_EUSART2_SetErrorHandler 163E  
                                       __ramtop 0200                                 ?_Lcd_Set_Cursor 0004  
                      TMR1_ReadTimer@readValLow 0008                                         __ptext0 0A98  
                                       __ptext1 0E16                                         __ptext2 15E8  
                                       __ptext3 15B6                                         __ptext4 1464  
                                       __ptext5 1612                                         __ptext6 14AA  
                                       __ptext7 1620                                         __ptext8 162A  
                                       __ptext9 1634                                 __size_of_strcmp 0078  
                     TMR1_ReadTimer@readValHigh 0007                             __size_of_Move_Right 000A  
                                     _T1CONbits 000FCD              _EUSART2_DefaultOverrunErrorHandler 000000  
                         _OSCILLATOR_Initialize 1612                            ??_Get_Distance_Front 001E  
                                    ??___xxtofl 000D                              _EUSART1_Initialize 14E8  
                      ??_PIN_MANAGER_Initialize 0001                      __size_of_SYSTEM_Initialize 0016  
                          end_of_initialization 15DE                            ?_EUSART1_is_rx_ready 0001  
                           ?_EUSART1_Initialize 0001                                 ?_Lcd_Print_Char 0001  
                                 __Lmediumconst 0000                     _EUSART1_OverrunErrorHandler 003F  
                            _EUSART2_Initialize 14AA                                ?_Rightwheel_Back 0001  
                                       postinc0 000FEE                           __size_of_EUSART1_Read 0028  
                    __end_of_Rightwheel_Forward 1696                                ?_Rightwheel_Stop 0001  
                                  ??_Lcd_SetBit 0001                            ??_EUSART1_Initialize 0003  
                                       strcmp@l 0001                                         strcmp@r 0003  
                           ?_EUSART2_Initialize 0001                         __size_of_Chair_Position 00E4  
                                     _PORTBbits 000F81                                       _PORTDbits 000F83  
                                   ___fladd@grs 0010                                  _TMR1_ReadTimer 1596  
                                 ___xxtofl@sign 0011                            __end_of_Move_Forward 1684  
                                   ___fldiv@grs 0014                                     ___fldiv@rem 000D  
              __size_of_EUSART1_SetErrorHandler 000A                           ??_EUSART1_is_rx_ready 0001  
                          ??_EUSART2_Initialize 0003                              __end_of_Lcd_SetBit 140E  
                                  _EUSART1_Read 154E                                ??_Leftwheel_Back 0001  
                              ??_Leftwheel_Stop 0001                                       _Lcd_Start 1350  
                                __end_of___flge 0F1A                        __end_of_Lcd_Print_String 1464  
                                _TMR1_StopTimer 16AE                          ?_OSCILLATOR_Initialize 0001  
                        __end_of_TMR1_ReadTimer 15B6                                  __end_of_strcmp 12EA  
                           start_initialization 15D2                 __size_of_PIN_MANAGER_Initialize 0046  
                                  ??_Move_Right 0001                               Lcd_Print_String@a 0009  
                             Lcd_Print_String@i 000D                __size_of_EUSART2_SetErrorHandler 000A  
                                     _Move_Back 1684          __end_of_EUSART2_SetOverrunErrorHandler 162A  
       __size_of_EUSART2_SetOverrunErrorHandler 000A                  _EUSART2_SetOverrunErrorHandler 1620  
                                     _Move_left 1666                           Chair_Position@Command 0006  
                      __size_of_TMR1_Initialize 001C                                        ??___flge 0026  
                                    ?_Lcd_Start 0001                          __end_of_TMR1_StopTimer 16B2  
                    Lcd_Print_Char@Lower_Nibble 0002                                        ??_strcmp 0005  
                               ?_TMR1_ReadTimer 0001                                       ___fladd@a 0005  
                                     ___fladd@b 0001                                       ___fldiv@a 0005  
                                     ___fldiv@b 0001                              __end_of_Move_Right 167A  
                                   __pbssCOMRAM 0043                               __size_of___xxtofl 01B4  
              ??_EUSART1_SetFramingErrorHandler 0003                 ?_EUSART1_SetFramingErrorHandler 0001  
                                      ?_Lcd_Cmd 0001                                      ?_Move_Back 0001  
                                    ?_Move_left 0001                          _PIN_MANAGER_Initialize 1464  
                              ??_Lcd_Set_Cursor 0005                                        ?___fladd 0001  
                                      ?___fldiv 0001                                  _Chair_Position 1112  
                               ?_TMR1_StopTimer 0001                                __CFG_PRICLKEN$ON 000000  
                         __size_of_Move_Forward 000A                               _Get_Distance_Rear 0F1A  
                                   __smallconst 0200                                        _BAUDCON1 000FB8  
                                      _BAUDCON2 000F70                        __size_of_TMR1_StartTimer 0004  
            _EUSART1_DefaultOverrunErrorHandler 000000                            _EUSART1_ErrorHandler 003D  
                            ?_Get_Distance_Rear 001A                         _EUSART1_SetErrorHandler 1652  
                              ??_Lcd_Print_Char 0002                             ??_Get_Distance_Rear 001E  
                                      _LATAbits 000F89         EUSART2_SetErrorHandler@interruptHandler 0001  
       EUSART1_SetErrorHandler@interruptHandler 0001                                        _LATBbits 000F8A  
                                      _LATCbits 000F8B                                        _LATDbits 000F8C  
                                      _LATEbits 000F8D                        __size_of_TMR1_WriteTimer 0028  
                                      Lcd_Cmd@a 0003                                        _PIR1bits 000F9E  
                                      _PIR3bits 000FA4                          __end_of_Chair_Position 11F6  
                              __CFG_WDTPS$32768 000000                                    _Move_Forward 167A  
                                   ??_Lcd_Start 0004                       __end_of_Get_Distance_Rear 1016  
                             ??_TMR1_Initialize 0001                     __size_of_Get_Distance_Front 00FC  
                            _Rightwheel_Forward 168E                                     _INTCON2bits 000FF1  
                                      _Distance 0043                             ?_Rightwheel_Forward 0001  
                       _EUSART2_SetErrorHandler 1634                     _EUSART2_OverrunErrorHandler 0037  
                              __size_of_Lcd_Cmd 0020                                     ??_Move_Back 0001  
                                   ??_Move_left 0001                                        __Hrparam 0000  
                                      __Lrparam 0000                           TMR1_ReadTimer@readVal 0005  
                               ?_Chair_Position 0006                               __CFG_P2BMX$PORTD2 000000  
                       ??_OSCILLATOR_Initialize 0001                                __size_of___fladd 04C0  
                              __size_of___fldiv 039A                     __size_of_EUSART1_Initialize 003E  
                          ??_Rightwheel_Forward 0001                               ?_Lcd_Print_String 0009  
                      __size_of_Rightwheel_Back 0008                       ??_EUSART1_SetErrorHandler 0003  
                   _EUSART1_DefaultErrorHandler 000000                     __end_of_EUSART1_is_rx_ready 1612  
                      __size_of_Rightwheel_Stop 0004                                        ___xxtofl 0C62  
                            ??_Lcd_Print_String 000B                            _EUSART2_ErrorHandler 0035  
                                      __ptext10 14E8                                        __ptext11 163E  
                                      __ptext20 0F1A                                        __ptext12 1648  
                                      __ptext21 1016                                        __ptext13 1652  
                                    _T1GCONbits 000FCC                                        __ptext30 154E  
                                      __ptext22 0C62                                        __ptext14 1350  
                                      __ptext31 1112                                        __ptext23 06FE  
                                      __ptext15 12EA                                        __ptext40 1696  
                                      __ptext32 1272                                        __ptext24 023E  
                                      __ptext16 1576                                        __ptext41 1684  
                                      __ptext33 165C                                        __ptext25 1526  
                                      __ptext17 140E                                        __ptext42 169E  
                                      __ptext34 1666                                        __ptext26 16AE  
                                      __ptext18 11F6                                        __ptext43 16A6  
                                      __ptext35 16B6                                        __ptext27 16B2  
                                      __ptext19 13B2                                        __ptext36 1670  
                                      __ptext28 1596                                        __ptext37 16BA  
                                      __ptext29 15FE                                        __ptext38 167A  
                                      __ptext39 168E                               ??_TMR1_StartTimer 0001  
                   __size_of_EUSART2_Initialize 003E                                   __size_of_Stop 000A  
                                 __size_of_main 01CA              _EUSART2_DefaultFramingErrorHandler 000000  
EUSART2_SetOverrunErrorHandler@interruptHandler 0001  EUSART1_SetOverrunErrorHandler@interruptHandler 0001  
                              ??_TMR1_ReadTimer 0003                      Lcd_Print_Char@Upper_Nibble 0003  
                             ??_TMR1_WriteTimer 0003                      __size_of_Get_Distance_Rear 00FC  
                   _EUSART1_FramingErrorHandler 0041                ??_EUSART2_SetOverrunErrorHandler 0003  
               ?_EUSART2_SetOverrunErrorHandler 0001                                      _INTCONbits 000FF2  
                     ??_EUSART2_SetErrorHandler 0003                         ?_PIN_MANAGER_Initialize 0001  
        __end_of_EUSART1_SetOverrunErrorHandler 1648         __size_of_EUSART1_SetOverrunErrorHandler 000A  
                _EUSART1_SetOverrunErrorHandler 163E                                      _RCSTA1bits 000FAB  
                                    _RCSTA2bits 000F71                                ??_TMR1_StopTimer 0001  
EUSART2_SetFramingErrorHandler@interruptHandler 0001  EUSART1_SetFramingErrorHandler@interruptHandler 0001  
                            Lcd_Set_Cursor@temp 0008                              _eusart1RxLastError 004C  
                       __size_of_Leftwheel_Back 0008                         __size_of_Leftwheel_Stop 0004  
                             __CFG_T3CMX$PORTC0 000000                                   ___fladd@signs 000D  
                             ??_Rightwheel_Back 0001                               ??_Rightwheel_Stop 0001  
                __end_of_PIN_MANAGER_Initialize 14AA                              _eusart2RxLastError 004B  
                                  ___fladd@aexp 000E                                    ___fladd@bexp 000F  
                             __CFG_FOSC$INTIO67 000000                                 _TMR1_Initialize 15B6  
